(lp0
(F3.931586188241603
F0.758405617926597
F0.32761492899340655
F0.3218235900335271
F0.23708212441261595
F0.11992372681220657
F0.08406281261315776
F0.0627308013674008
F8.229742768992825
F1.7195755089399087
F0.8738974145381069
F0.9068515337745502
F1.1682208833825325
F0.6970930799045325
F0.5271208983264507
F0.4314070342750555
F6.164444176032408
F0.49703290149969437
F0.2314705764598671
F0.11022413652277603
F0.04903706333184738
F0.030634241315553583
F0.022773977370160098
F0.018412055355346582
F17.38768582337733
F1.4358884015069557
F2.5460372267842613
F1.3559751824143345
F0.5490510508912392
F0.10700134998796694
F0.0918459930801662
F0.0815228304453854
I15379
tp1
a.