(lp0
(F3.039766070992323
F0.685386916470893
F0.30133742399152635
F0.32535122346882106
F0.24228653809563455
F0.12837417862669512
F0.09100205629327751
F0.07011882138942646
F7.096113978682595
F1.9178237122406132
F0.859649597490234
F0.9661322635157511
F1.0562062511045875
F0.48864962162745285
F0.25614742605641205
F0.4479997200737599
F3.276677766717204
F0.45236628326179396
F0.19417468267886226
F0.1053042524392096
F0.05251197492110512
F0.03789829480895092
F0.02819000848843992
F0.03996437331882163
F10.109328667916259
F1.3422386322989468
F0.5885975571861658
F1.2513444367934465
F0.44415452039028197
F0.1267645879043883
F0.1006606643086082
F2.005512886886622
I15073
tp1
a.