(lp0
(F0.2772482494879091
F0.060974918649895946
F0.01854837059782717
F0.024078655489662405
F0.05820679029720271
F0.05206329977679143
F0.045654325266593535
F0.034565773831495776
F0.4985898108454309
F1.2170733973390386
F0.1462438926385361
F0.3280110652273923
F1.1098429157332728
F3.0954923681181454
F1.1235361837985613
F0.839941201348806
I5861
tp1
a.