(lp0
(F0.2656653765250729
F0.06795363194615778
F0.13444976813672327
F0.6078647604745481
F0.722619783637075
F0.1784687017089179
F0.34115880990934944
F0.2292843895228047
F0.9683778447355771
F1.1682712988021586
F4.697476434406973
F10.362749037445823
F12.524047413848143
F6.083629117531909
F8.588850532236012
F7.017858965475465
I2588
tp1
a.