(lp0
(F0.2660260940269421
F0.0869974904925585
F0.07029056545868151
F0.08115557043133813
F0.11031649351890437
F0.06198628308623115
F0.07920073612101955
F0.04928409726288013
F2.2272593816313417
F2.5451678050188358
F2.8394633412249086
F3.139173637655093
F3.287351641771013
F2.0757333912769096
F2.726900054843246
F1.7700525034749115
I17934
tp1
a.