(lp0
(F0.2812005460037829
F0.04968624425529345
F0.06259768722863439
F0.05061685948842956
F0.06831223341538296
F0.09592939750985789
F0.12036518558147871
F0.08841905052185839
F0.8423049922631262
F0.3842053510201711
F2.105465459190379
F1.023935146273947
F1.1394060028565627
F2.502996024365476
F2.0595210195459517
F2.399429664240464
I3286
tp1
a.