(lp0
(F1.66294130531369
F0.4710742119021843
F0.21730479493631183
F0.2384454246039663
F0.17317438883587463
F0.10400610433581249
F0.07424065869809278
F0.04646999093671868
F2.9577320438765824
F1.4277082789021107
F0.7072799579873386
F1.0465332785747676
F0.8705811651176104
F0.7757437190961449
F0.6467408923587612
F0.6363930699402407
F2.6419832290726446
F0.36829449785781504
F0.17045388307554468
F0.09578890818602477
F0.034482421133575164
F0.02408987924288909
F0.029111576853081623
F0.03005486902743567
F7.429428673654896
F1.2761775705781364
F1.8709480901208226
F2.1155745174797618
F0.24317802872240155
F0.07371217942515751
F1.4672756993893603
F1.9642605403041
I13596
tp1
a.