(lp0
(F3.158466915479701
F0.7524292164490413
F0.4977304235925716
F0.39885088060203666
F0.43929901159428036
F0.16845045474675158
F0.1951934668227004
F0.08986024109608322
F14.88460542601267
F10.76791346687824
F11.409926894149685
F7.293803788615722
F13.247091091724094
F5.411545977654326
F9.568391189930802
F2.7032135588999733
F3.2048930977313956
F0.445067199509076
F0.19331760325513386
F0.1482003742208404
F0.06638441663063482
F0.05292589230584712
F0.057198824994694086
F0.053271835198953336
F10.008298503130572
F1.3803075444752548
F0.7593674615106676
F3.1042536889215953
F1.4013948813397037
F1.9800916891610831
F2.6109007107084343
F2.6580321589438265
I15491
tp1
a.