(lp0
(F-1.58
F0.676520084361437
F-3.786205510199369
F0.18900000117719173
F0.16199999675154686
tp1
a(F2.77
F-0.24950941808167576
F4.801040617005063
F0.4389999844133854
F40.0
tp2
a(F2.67
F-0.5785337819182857
F5.191010955938233
F0.4190000034868717
F41.0
tp3
a(F-0.18
F3.5651655211501456
F-5.45244852017419
F0.16299999505281448
F0.3379999939352274
tp4
a(F0.16
F3.0532775005920763
F-5.224446729594802
F0.17000000178813934
F0.5920000094920397
tp5
a(F0.46
F2.863709774838865
F-4.96355333918775
F0.2089999970048666
F0.4130000099539757
tp6
a(F0.8
F3.274401293553174
F-5.444554376692812
F0.17799999751150608
F0.40500000305473804
tp7
a(F1.22
F3.324872142511824
F-5.260276237881182
F0.389000004157424
F1.4319999776780605
tp8
a(F1.06
F3.132099097898121
F-5.0409317515756955
F0.23999999463558197
F1.3489999528974295
tp9
a(F1.0
F3.7331930846414667
F-5.618935016320715
F0.18600000254809856
F0.22199999913573265
tp10
a(F1.53
F3.444264978544536
F-5.1514927103650265
F0.25899999402463436
F0.6429999731481075
tp11
a(F1.44
F3.602976260564315
F-5.549075442302585
F0.5129999909549952
F1.4189999923110008
tp12
a(F2.01
F3.0052640896841156
F-5.174988970059848
F0.4849999863654375
F0.8220000136643648
tp13
a(F2.12
F3.054979063082652
F-5.4119387447343135
F0.21900000236928463
F0.6129999998956919
tp14
a(F0.78
F-3.71479680560412
F5.693478405949682
F0.6309999860823154
F0.793999994173646
tp15
a(F1.05
F-3.877718864634691
F5.814858541451004
F0.35499999672174454
F1.0189999993890524
tp16
a(F0.46
F-3.8623138796452112
F6.113420979636426
F0.17999999597668648
F0.4829999953508377
tp17
a(F0.26
F-3.774730893190812
F6.092702679764763
F0.9229999929666519
F0.9769999962300062
tp18
a(F0.58
F-3.943953434846376
F6.196969419326831
F0.4810000117868185
F0.6260000057518482
tp19
a(F1.12
F-3.6676775626192786
F5.441868126929127
F0.6920000035315752
F0.7919999957084656
tp20
a(F-0.02
F-3.8947491330267336
F6.4612896123848715
F0.19499999657273293
F0.2860000003129244
tp21
a(F-0.22
F-3.7950984335896654
F6.42878652663731
F0.9210000187158585
F0.7839999906718731
tp22
a(F0.1
F-3.9747118320577
F6.535229397483852
F0.3739999905228615
F0.7359999883919954
tp23
a(F0.63
F-3.7350643605755325
F5.843758680619507
F0.6269999910145998
F0.6079999934881926
tp24
a(F-0.71
F-3.812693224675751
F6.737269014565329
F0.6800000108778477
F0.5799999907612801
tp25
a(F-0.37
F-3.994399364729545
F6.8532576987629295
F0.37199999392032623
F0.7459999937564135
tp26
a(F0.14
F-3.7874240070173126
F6.20608387855888
F0.38199999928474426
F0.7170000076293945
tp27
a(F-1.19
F-3.80594039373953
F7.003363546073626
F0.6970000118017197
F0.5349999852478504
tp28
a(F-0.84
F-4.000552659160409
F7.131457944947683
F0.39999999664723873
F0.6299999859184027
tp29
a(F-0.35
F-3.805619892910186
F6.52380389722142
F0.6289999857544899
F0.6259999889880419
tp30
a(F-1.67
F-3.787698769769383
F7.238752513020714
F0.43899999000132084
F0.48099999874830246
tp31
a(F-1.34
F-4.00096959428406
F7.398670367654681
F0.418999994173646
F0.7529999874532223
tp32
a(F-0.86
F-3.818826284621997
F6.830625915117588
F0.41999999433755875
F0.5939999930560589
tp33
a(F-2.14
F-3.771794695545427
F7.455171810402524
F0.9389999769628048
F0.8249999955296516
tp34
a(F-1.8
F-3.98747659424893
F7.615498596476474
F0.6629999987781048
F0.8969999849796295
tp35
a(F-1.35
F-3.826709099882634
F7.089059592051372
F0.5290000084787607
F0.6910000033676624
tp36
a(F-2.6
F-3.7394652807259274
F7.6476138473708035
F0.8060000259429216
F0.8810000158846378
tp37
a(F-2.39
F-3.8322530759477957
F7.7244156981870375
F0.2109999991953373
F0.21100000105798244
tp38
a(F-3.94
F-3.8600784246318423
F8.349841452832479
F0.17599999718368053
F0.43799998983740807
tp39
a(F-3.94
F-3.8600784246318423
F8.349841452832479
F0.3030000012367964
F0.38499999418854713
tp40
a(F-4.31
F-3.827876467369088
F8.437034080844807
F0.27599999494850636
F0.4559999965131283
tp41
a(F2.68
F3.5716609608330447
F-4.719582701471735
F0.31900001130998135
F0.44699999690055847
tp42
a(F2.54
F3.3617301008207328
F-4.455903250286987
F0.25999999046325684
F0.28799999691545963
tp43
a(F2.46
F3.8158846650016818
F-4.994411757098243
F0.22499999776482582
F0.284000001847744
tp44
a(F2.71
F2.8604631878710007
F-4.387054133098157
F0.17599999718368053
F0.2409999966621399
tp45
a(F-4.15
F-2.4885403185331656
F6.31231637154212
F0.210999995470047
F0.1749999988824129
tp46
a(F2.65
F1.381344466210603
F-4.187495477539282
F0.338999992236495
F0.9289999883621931
tp47
a(F2.46
F1.7495793125852042
F-4.4027302565601305
F0.35399999283254147
F0.8270000219345093
tp48
a(F2.55
F1.2634841660729739
F-4.04348839208938
F0.210999995470047
F0.36999999172985554
tp49
a(F2.51
F1.0772692235758203
F-3.818997034949471
F0.6080000083893538
F1.3130000066012144
tp50
a(F2.57
F1.7430476482972854
F-4.640441481516876
F0.4319999944418669
F0.8179999869316816
tp51
a(F-1.65
F-4.146294094743546
F5.7118134845273225
F1.0939999911934137
F3.4080000035464764
tp52
a(F-1.89
F-3.9149905372467098
F5.9422949514205365
F0.4859999902546406
F1.792999992147088
tp53
a(F-2.11
F-3.6662547413172684
F6.119077295777579
F0.5589999966323376
F1.2099999822676182
tp54
a(F-2.74
F-2.441976046121316
F6.3819603005788474
F0.340999998152256
F0.7999999914318323
tp55
a(F-2.9
F-2.0977329894431924
F6.442100064149075
F0.22799999825656414
F0.4049999937415123
tp56
a(F-3.04
F-1.7323419384401448
F6.481248253653821
F0.196000000461936
F0.37099999003112316
tp57
a(F-3.18
F-1.3500126581058423
F6.509293460967314
F0.17899999767541885
F0.22699999809265137
tp58
a(F-3.31
F-0.9594239103435858
F6.530976428472898
F0.16200000047683716
F0.3579999916255474
tp59
a(F0.1
F5.727614911382873
F8.585117596879256
F0.1599999964237213
F0.16199999675154686
tp60
a(F0.31
F5.737559254360831
F8.60999489189384
F0.2199999988079071
F0.2589999921619892
tp61
a(F1.82
F4.463047308140082
F7.816188375907684
F0.18600000254809856
F0.36599999479949474
tp62
a(F2.64
F4.551527135675545
F8.117746868654315
F0.17000000178813934
F0.49899998866021633
tp63
a(F2.63
F4.549301656591431
F8.107997905437582
F0.20599999837577343
F0.4050000049173832
tp64
a(F2.79
F4.560603608038939
F8.157365623331449
F0.20599999837577343
F0.3989999946206808
tp65
a(F2.8
F4.549653532565299
F8.15495385798474
F0.17000000178813934
F0.24199999496340752
tp66
a(F3.1
F4.581575008700761
F8.255859805802688
F0.17000000178813934
F0.338999992236495
tp67
a(F3.09
F4.57939198131459
F8.246100760300164
F0.17000000178813934
F0.4670000057667494
tp68
a(F3.24
F4.590555637894221
F8.286079543828366
F0.3049999959766865
F0.49899998866021633
tp69
a(F1.59
F4.449907551495686
F7.345908270119614
F0.23400000482797623
F0.43599999509751797
tp70
a(F1.63
F4.450818110621893
F7.361769260451942
F0.1789999958127737
F0.4039999917149544
tp71
a(F1.76
F4.476812873333952
F7.415557612105953
F0.5980000011622906
F0.7109999842941761
tp72
a(F1.81
F4.4946600170242235
F7.443969489944709
F0.1730000004172325
F0.2540000006556511
tp73
a(F2.07
F4.535135530487073
F7.534512483885277
F0.2239999994635582
F0.367000013589859
tp74
a(F2.11
F4.536434201455572
F7.550030499692205
F0.2089999970048666
F0.3409999944269657
tp75
a(F2.24
F4.55703552515619
F7.583982869213749
F0.5480000022798777
F0.34099999256432056
tp76
a(F2.29
F4.579816811975887
F7.621374726768897
F0.15800000168383121
F0.2239999994635582
tp77
a(F2.55
F4.617194784229161
F7.6905670726102295
F0.2389999981969595
F0.3069999944418669
tp78
a(F2.59
F4.618867608291334
F7.705736199127285
F0.2239999994635582
F0.3169999998062849
tp79
a(F2.71
F4.641458139636477
F7.738730964360534
F0.4879999868571758
F0.4120000172406435
tp80
a(F2.76
F4.65210906567171
F7.762787305120886
F0.15800000168383121
F0.32299999706447124
tp81
a(F3.02
F4.689305178576092
F7.820009089912328
F0.3739999905228615
F0.41700001060962677
tp82
a(F3.06
F4.688936444956232
F7.825345264667493
F0.22499999776482582
F0.38699999637901783
tp83
a(F3.18
F4.703042124067126
F7.853843030228162
F0.7309999763965607
F0.7429999858140945
tp84
a(F3.22
F4.7236329350664
F7.880834008976872
F0.3199999965727329
F0.31099999509751797
tp85
a(F3.48
F4.751001628186944
F7.922444147256437
F0.3339999970048666
F0.4689999893307686
tp86
a(F3.52
F4.750895321200073
F7.927409932212583
F0.5020000040531158
F0.36999999918043613
tp87
a(F3.71
F4.788969167181918
F7.971171123103043
F0.2279999926686287
F0.35599999502301216
tp88
a(F3.93
F4.811069986104879
F8.001239410959494
F0.27299999818205833
F0.23800000175833702
tp89
a(F3.97
F4.8100810563316605
F8.006016719785306
F0.17500000074505806
F0.30799999833106995
tp90
a(F3.91
F5.6979366856529365
F7.611687093141486
F0.16199999675154686
F0.1730000004172325
tp91
a(F4.14
F5.653488193759179
F7.642300704268333
F0.17599999718368053
F0.2389999981969595
tp92
a(F3.74
F3.2941616499709845
F7.715062392022984
F0.3020000122487545
F0.8480000291019678
tp93
a(F3.77
F3.281104205189087
F7.719198259553604
F0.20599999837577343
F0.4659999907016754
tp94
a(F3.78
F3.281104205189087
F7.719198259553604
F0.5049999859184027
F1.009999979287386
tp95
a(F3.83
F3.2839999234802035
F7.735198838741193
F0.4460000079125166
F1.1780000030994415
tp96
a(F3.87
F3.2650203832906595
F7.736283410457741
F0.20999999344348907
F0.7919999938458204
tp97
a(F3.87
F3.2746734452645256
F7.738895036003576
F0.27000001072883606
F1.1750000286847353
tp98
a(F3.88
F3.2650203832906595
F7.736283410457741
F0.4219999872148037
F0.9349999874830246
tp99
a(F3.93
F3.2706178242174895
F7.761837702523299
F0.2549999989569187
F0.6910000126808882
tp100
a(F3.97
F3.2574989511536305
F7.755909964995638
F0.18600000254809856
F0.5820000134408474
tp101
a(F3.98
F3.2478510355522943
F7.7532798445013045
F0.22199999913573265
F0.3650000113993883
tp102
a(F4.05
F3.250269213896492
F7.785302558000982
F0.19299999624490738
F0.43300000578165054
tp103
a(F4.07
F3.241705800412258
F7.772569122400396
F0.2389999981969595
F0.5019999872893095
tp104
a(F4.11
F3.230048094350811
F7.776300250698728
F0.2530000004917383
F0.7469999752938747
tp105
a(F4.15
F3.235873975369748
F7.801623190469505
F0.2259999942034483
F0.8210000116378069
tp106
a(F4.17
F3.2273115847023326
F7.78884030185199
F0.41900000534951687
F1.1140000000596046
tp107
a(F4.2
F3.214460549474791
F7.792641076027893
F0.22199999913573265
F0.6789999939501286
tp108
a(F4.21
F3.214460549474791
F7.792641076027893
F0.3249999899417162
F1.3630000427365303
tp109
a(F4.25
F3.2176995756103905
F7.808228821960401
F0.4469999931752682
F1.0390000101178885
tp110
a(F4.29
F3.20595679373921
F7.801820548079928
F0.17000000178813934
F1.084000013768673
tp111
a(F4.31
F3.1990248150849623
F7.808752232841837
F0.3030000105500221
F0.8100000061094761
tp112
a(F4.35
F3.203602992419156
F7.824063300537447
F0.3320000134408474
F1.4590000417083502
tp113
a(F4.14
F1.9399123565903829
F7.589779316125868
F0.15600000135600567
F0.32499999180436134
tp114
a(F0.53
F4.048862828312679
F5.793726042160733
F0.17999999783933163
F0.21199999377131462
tp115
a(F0.94
F3.849696973658742
F6.067938133332152
F0.22700000181794167
F0.22399999760091305
tp116
a(F0.94
F3.8368274786462386
F6.064638061691601
F0.16299999877810478
F0.227999996393919
tp117
a(F1.22
F3.675678196641723
F6.243145658148331
F0.178999999538064
F0.17999999783933163
tp118
a(F1.35
F3.5948939833974762
F6.312604360812237
F0.19599999859929085
F0.27599999867379665
tp119
a(F1.62
F3.410287558834754
F6.4653671151776955
F0.16200000047683716
F0.1959999967366457
tp120
a(F1.74
F3.3310254730150133
F6.537505677968838
F0.17999999783933163
F0.3919999897480011
tp121
a(F1.75
F3.3138167723079373
F6.525235081359506
F0.19500000029802322
F0.22700000181794167
tp122
a(F2.02
F3.1097223394145885
F6.661662707707597
F0.17900000140070915
F0.17999999783933163
tp123
a(F2.13
F3.0347266163183546
F6.729111280212232
F0.1639999970793724
F0.2109999991953373
tp124
a(F3.6
F1.6612591127824523
F7.266219589586854
F0.17800000123679638
F0.2439999971538782
tp125
a(F4.18
F1.0384088793171442
F7.426872447974937
F0.7189999930560589
F3.290000045672059
tp126
a(F4.27
F0.9393951330686888
F7.453305498064776
F0.4649999961256981
F3.376999903470278
tp127
a(F4.28
F0.9171015109278947
F7.450111284174044
F0.28999999910593033
F1.002000017091632
tp128
a(F4.28
F0.924944299255366
F7.4422687764230915
F0.48299998976290226
F3.7430000863969326
tp129
a(F-0.7
F2.5516121077668728
F-5.302136977467368
F0.29099999368190765
F0.3499999977648258
tp130
a(F-0.35
F3.559244474005705
F-5.538741526064669
F0.2549999989569187
F0.4959999956190586
tp131
a(F-0.35
F3.7045452066815785
F-6.053123777993434
F0.25799999572336674
F0.438999991863966
tp132
a(F0.06
F3.7497533810234778
F-5.626556043824381
F0.5470000021159649
F0.7649999875575304
tp133
a(F0.36
F5.187173618016549
F-6.510560576285001
F0.15399999916553497
F0.9530000165104866
tp134
a(F0.6
F4.578564241631414
F-6.085339783813065
F0.25699999555945396
F0.267000000923872
tp135
a(F0.29
F4.666554523225959
F-6.257183115510651
F0.20400000363588333
F0.267000000923872
tp136
a(F0.7
F4.646909395311173
F-6.405952700816411
F0.18700000271201134
F0.15399999916553497
tp137
a(F0.95
F3.9524315776631873
F-5.79535855699182
F0.18400000780820847
F0.2199999988079071
tp138
a(F2.49
F3.1047604924530976
F-5.628452857473238
F0.3399999924004078
F0.5449999962002039
tp139
a(F2.57
F4.087645745371726
F-5.512231871787848
F0.2199999988079071
F0.5509999990463257
tp140
a(F3.0
F1.6424041965889327
F-4.879037231395742
F0.5130000058561563
F0.8750000055879354
tp141
a(F2.9
F3.8897594843932835
F-8.432388473169787
F0.22199999913573265
F0.27599999122321606
tp142
a(F2.39
F5.85770235996061
F-9.019657933468135
F0.20999999344348907
F0.4219999872148037
tp143
a(F2.44
F5.317243349657781
F-8.753762230072251
F0.2199999988079071
F0.30199999921023846
tp144
a(F2.5
F5.351299334723713
F-9.25357796038188
F0.22199999913573265
F0.24299999326467514
tp145
a(F3.58
F5.789074172386933
F-9.613172507273463
F0.2929999902844429
F0.35000001452863216
tp146
a(F3.47
F2.1478876633718045
F-8.63560423120003
F0.18600000254809856
F0.19099999777972698
tp147
a(F3.57
F0.9429378200349874
F-8.243407805483658
F0.23599999956786633
F0.22499999590218067
tp148
a(F1.84
F-1.5905986290787664
F-5.447531439550824
F0.30599999241530895
F0.44800000824034214
tp149
a(F4.55
F3.809931694891544
F-9.295516489407804
F0.2030000016093254
F0.8379999939352274
tp150
a(F4.39
F3.354355118838482
F-9.121911881540369
F0.24199999496340752
F0.6269999891519547
tp151
a(F4.55
F0.9406480916345901
F-8.830382997353656
F0.21099999360740185
F0.16200000047683716
tp152
a(F4.81
F-4.155484365933293
F-8.646375803531122
F0.2259999942034483
F0.35499999299645424
tp153
a(F3.53
F-3.5144673824884336
F-8.701948562619506
F0.2199999988079071
F0.17599999718368053
tp154
a(F4.91
F-2.714273117598773
F-9.19618065512864
F0.25799999572336674
F0.6469999980181456
tp155
a(F4.54
F-2.795646525533108
F-9.09323270174782
F0.30399999767541885
F0.9239999894052744
tp156
a(F0.73
F-4.865220906809226
F-7.768492198969064
F0.1599999964237213
F0.23999999463558197
tp157
a(F4.21
F-5.458414382576793
F-9.319789854835689
F0.20599999837577343
F0.6750000007450581
tp158
a(F4.09
F-5.249945283457828
F-8.768398501620899
F0.4300000127404928
F0.6659999806433916
tp159
a(F1.11
F5.694780186512845
F7.218407577365526
F0.25299999862909317
F0.41799999214708805
tp160
a(F1.59
F5.895577676464521
F7.458430144289923
F0.4859999995678663
F0.8220000229775906
tp161
a(F1.93
F5.887050764082895
F7.908008162763617
F0.20999999344348907
F0.3699999935925007
tp162
a(F1.61
F6.381828790558456
F8.175838286023208
F0.17000000178813934
F0.4050000049173832
tp163
a(F1.59
F5.6262934993596865
F7.3833197635472665
F0.2559999953955412
F0.5980000142008066
tp164
a(F2.39
F6.004250454754505
F8.081074269372417
F0.23599999956786633
F0.5369999837130308
tp165
a(F4.1
F-7.180723715711533
F-9.35266348495542
F0.3199999965727329
F0.4669999908655882
tp166
a(F4.71
F-6.627369412431122
F-9.097083728090539
F0.5129999946802855
F0.9010000098496675
tp167
a(F4.39
F-6.752614687310261
F-9.286399669901776
F0.35699999146163464
F0.6769999694079161
tp168
a(F3.57
F-6.5491283501699336
F-9.108070269195824
F0.22699999623000622
F0.25899999402463436
tp169
a(F2.63
F4.591943985238633
F7.885089824849427
F0.2279999926686287
F0.48099999129772186
tp170
a(F2.62
F5.201424987300109
F7.074999650162475
F0.15600000135600567
F0.20200000330805779
tp171
a(F2.47
F-8.379569016149787
F-10.100084889694198
F0.20999999344348907
F0.23999999463558197
tp172
a(F2.09
F-8.265265832672814
F-9.918886035480858
F0.20599999837577343
F0.25299999862909317
tp173
a(F2.64
F-8.405518853152216
F-9.889175690607964
F0.3160000126808882
F0.5180000048130751
tp174
a(F1.45
F-8.215645337835467
F-9.997266739704587
F0.15899999998509884
F0.17899999767541885
tp175
a(F1.37
F-7.856683870156505
F-9.443941725459695
F0.16199999675154686
F0.21099999733269215
tp176
a(F3.3
F4.076071744144288
F6.629399677342541
F0.15600000135600567
F0.1720000021159649
tp177
a(F3.11
F0.3300944937007859
F5.507599671609218
F0.20999999344348907
F0.39899999275803566
tp178
a(F-3.46
F-6.730862190592224
F-10.013622163995226
F0.19499999657273293
F0.2540000006556511
tp179
a(F-3.45
F-6.309125836883677
F-9.766191682928502
F0.26000000163912773
F0.1620000023394823
tp180
a(F-2.87
F-7.265237463775442
F-10.271218566631417
F1.2250000145286322
F1.8510000109672546
tp181
a(F-2.86
F-6.826579971347645
F-10.019501266881496
F3.2010000348091125
F4.439999967813492
tp182
a(F-3.4
F-5.4052357018908905
F-9.213415273524923
F0.227999996393919
F0.22699999809265137
tp183
a(F-2.85
F-6.387305890704418
F-9.763449804042963
F2.6279999390244484
F4.579999998211861
tp184
a(F-2.82
F-5.917906417071416
F-9.493695420656351
F3.0659999400377274
F4.18499992787838
tp185
a(F-2.04
F0.7078773126303379
F-5.082442722384359
F0.2540000006556511
F0.30999999307096004
tp186
a(F-0.5
F3.323743858968669
F-6.18599117821637
F0.15899999998509884
F0.2739999946206808
tp187
a(F-0.2
F3.430839179054995
F-5.811676900023438
F0.3000000026077032
F0.738000001758337
tp188
a(F-0.13
F3.4404536348116475
F-5.753113076872977
F0.1959999967366457
F0.41799999214708805
tp189
a(F1.05
F5.121676111763923
F-6.446576265140631
F0.17799999751150608
F0.21199999749660492
tp190
a(F1.1
F4.605046928103087
F-6.596816825091489
F0.16199999675154686
F0.30000000074505806
tp191
a(F1.79
F4.363924808542744
F-6.637926928720655
F0.16299999505281448
F0.3049999959766865
tp192
a(F2.24
F4.0031339661224
F-6.145693843194941
F0.6989999804645777
F2.136999962851405
tp193
a(F2.18
F4.028249445416975
F-6.196316116195641
F0.36200000159442425
F1.0830000005662441
tp194
a(F2.3
F4.61180325408104
F-6.417317266222881
F0.3030000105500221
F0.33699999563395977
tp195
a(F2.65
F4.171358130834379
F-5.967810355802461
F0.46899998746812344
F1.0059999860823154
tp196
a(F2.63
F4.151174603964149
F-5.955744575528932
F0.35200000926852226
F0.5519999973475933
tp197
a(F2.78
F3.247322035234826
F-6.006843052602298
F0.18600000254809856
F0.3089999910444021
tp198
a(F2.9
F3.125461563419349
F-5.868882866202389
F0.23500000312924385
F0.5449999906122684
tp199
a(F2.17
F4.997671219974337
F-7.969028174600545
F0.4969999920576811
F0.9210000205785036
tp200
a(F2.29
F4.720975738889626
F-7.759031258965529
F2.1290000174194574
F26.144999984651804
tp201
a(F2.28
F4.737432834344494
F-7.7913858367912265
F0.5430000089108944
F3.205000091344118
tp202
a(F2.36
F4.463282443314596
F-7.57348149462465
F0.7940000090748072
F3.7179999444633722
tp203
a(F2.49
F4.174715337787827
F-7.352808564960286
F0.8899999875575304
F7.948999796062708
tp204
a(F2.48
F4.1724679922391505
F-7.373418870033526
F0.6619999818503857
F1.7350000366568565
tp205
a(F2.55
F3.916301446122658
F-7.170150168722216
F1.194999998435378
F3.220000095665455
tp206
a(F2.6
F3.8185099451547733
F-7.106903181510766
F1.7029999755322933
F2.6040000524371862
tp207
a(F2.67
F3.6254824512640527
F-6.942739393741927
F8.910999730229378
F14.329999595880508
tp208
a(F2.66
F3.619518867616751
F-6.954352325916594
F5.818000040948391
F8.469000164419413
tp209
a(F2.73
F3.361627170060115
F-6.743962348490899
F9.35999995470047
F12.210000216960907
tp210
a(F2.77
F3.261113633851313
F-6.672412377867783
F1.2929999958723783
F2.683999978005886
tp211
a(F2.84
F3.0655611389174924
F-6.5003970569918135
F2.9439999386668205
F5.727999873459339
tp212
a(F2.84
F3.0538329402241158
F-6.5181502003599405
F1.2749999985098839
F3.3870000950992107
tp213
a(F2.89
F2.791245546984069
F-6.2912791849696434
F0.43700000271201134
F1.3219999969005585
tp214
a(F2.94
F2.6918210631271453
F-6.220790372710438
F0.3749999888241291
F0.3219999950379133
tp215
a(F3.01
F2.4634474475060464
F-6.016836122460724
F0.7079999875277281
F1.5030000191181898
tp216
a(F3.0
F2.491738871468158
F-6.062469653545197
F0.3219999931752682
F0.7460000086575747
tp217
a(F3.09
F2.116699323497372
F-5.746530237629331
F1.1750000193715096
F2.20499999076128
tp218
a(F3.16
F1.8845615236549238
F-5.525154780619953
F3.382999949157238
F6.679999977350235
tp219
a(F3.14
F1.912600060556216
F-5.570822150774578
F2.3069999627768993
F3.504999950528145
tp220
a(F3.19
F1.6400108722343478
F-5.32630496548595
F2.1540000215172768
F2.7919999323785305
tp221
a(F3.22
F1.5401063680175713
F-5.248531589037436
F1.792000038549304
F2.774999961256981
tp222
a(F-0.2
F-3.2118078922909357
F4.964818108377713
F0.19299999624490738
F0.6150000132620335
tp223
a(F-2.9
F-1.5950825928852066
F6.294718216497897
F0.17599999718368053
F0.40099999122321606
tp224
a(F0.45
F9.103922574514659
F-11.052587747259718
F12.880000054836273
F10.989999949932098
tp225
a(F0.47
F9.075744663657773
F-11.0106938746498
F1.327999971807003
F1.0709999967366457
tp226
a(F0.64
F8.824849286137301
F-10.80703284019669
F21.59999966621399
F21.369999766349792
tp227
a(F0.67
F8.795272575633014
F-10.76360883045717
F4.840000003576279
F4.450000002980232
tp228
a(F0.84
F8.536688093019489
F-10.545742411007064
F15.699999928474426
F15.800000250339508
tp229
a(F0.87
F8.505758886746879
F-10.500989969880775
F5.859999895095825
F4.760000064969063
tp230
a(F1.03
F8.233718773357324
F-10.260841727955647
F14.61000007390976
F14.830000340938568
tp231
a(F1.06
F8.192593298338043
F-10.210344737803073
F1.5089999921619892
F1.6119999550282955
tp232
a(F1.24
F7.8892673747170505
F-9.943223269648605
F26.90000021457672
F27.299999713897705
tp233
a(F1.26
F7.8499862347054155
F-9.887585030083612
F4.6599999368190765
F4.610999897122383
tp234
a(F1.43
F7.543302384304342
F-9.613371633468072
F11.260000050067902
F11.059999823570251
tp235
a(F1.45
F7.50166999013782
F-9.557203592146395
F0.35999999195337296
F0.3980000000447035
tp236
a(F1.61
F7.186961478360692
F-9.271717968888266
F0.28899999894201756
F0.4000000078231096
tp237
a(F1.8
F6.801744637400095
F-8.90967167081837
F3.0299999862909317
F2.518999971449375
tp238
a(F1.98
F6.401371452095871
F-8.528733399067312
F0.19500000029802322
F0.3219999950379133
tp239
a(F2.15
F5.984705589724836
F-8.130104047482066
F0.39899999648332596
F0.5560000129044056
tp240
a(F2.33
F5.544054741980463
F-7.709310712689687
F0.4869999922811985
F0.6090000085532665
tp241
a(F2.35
F5.474855891469494
F-7.630845256438884
F0.40799998864531517
F0.27699999511241913
tp242
a(F2.49
F5.073468232174314
F-7.258724127244969
F14.339999973773956
F17.73000007867813
tp243
a(F2.51
F5.0021786585873365
F-7.180930444863818
F2.3799999952316284
F2.054999992251396
tp244
a(F2.65
F4.56437609912887
F-6.774047786746283
F7.159999907016754
F5.3400000631809235
tp245
a(F2.67
F4.513391419090899
F-6.715746232893764
F2.3950000256299973
F2.6649999618530273
tp246
a(F2.8
F4.05198426008978
F-6.288721413729488
F0.22799999453127384
F0.3219999931752682
tp247
a(F2.93
F3.5208240313163115
F-5.779533980648146
F9.16000011563301
F7.739999875426292
tp248
a(F2.95
F3.4347324274753634
F-5.686800036283977
F3.244999974966049
F1.9669999741017818
tp249
a(F3.06
F2.968408843845583
F-5.248404828914508
F30.499999403953552
F30.100000023841858
tp250
a(F3.07
F2.8815591324639613
F-5.156291376488114
F10.399999886751175
F7.309999942779541
tp251
a(F3.16
F2.3971955750775797
F-4.694642840732265
F15.300000071525574
F15.990000128746033
tp252
a(F0.64
F8.608483235161767
F-10.987787706394137
F0.3079999927431345
F0.9090000037103891
tp253
a(F0.67
F8.541372410920845
F-10.931103339490944
F0.888000026345253
F2.4379998985677958
tp254
a(F0.68
F8.500877613124924
F-10.92595611450371
F0.22299999743700027
F0.8380000106990337
tp255
a(F0.74
F8.369497610527606
F-10.856252335678878
F0.4039999898523092
F0.6909999921917915
tp256
a(F0.78
F8.2710622858872
F-10.798566475345284
F0.45399998873472214
F0.6900000013411045
tp257
a(F0.82
F8.163179760438783
F-10.737676981596096
F0.21900000236928463
F0.4340000096708536
tp258
a(F0.85
F8.096234769010781
F-10.681535920043398
F0.681999996304512
F1.8780000172555447
tp259
a(F0.82
F8.122855816102366
F-10.700110942740826
F0.3209999967366457
F0.709000026807189
tp260
a(F0.92
F7.919954772604941
F-10.599561376295782
F0.1749999988824129
F0.5010000038892031
tp261
a(F0.96
F7.811843424802662
F-10.539652058157316
F0.32499999180436134
F0.5809999853372574
tp262
a(F1.01
F7.703664015335814
F-10.480048352003822
F0.23400000482797623
F0.5030000023543835
tp263
a(F1.03
F7.636909207139928
F-10.424470719791255
F0.6800000090152025
F2.2949999030679464
tp264
a(F1.0
F7.663472636284359
F-10.442811104363939
F0.28799999691545963
F0.9200000204145908
tp265
a(F1.06
F7.566893546759928
F-10.403492131583326
F0.23500000312924385
F0.5039999857544899
tp266
a(F1.1
F7.458577206067347
F-10.344585258609687
F0.49500001035630703
F0.8880000244826078
tp267
a(F1.14
F7.3469819763546
F-10.276523213983921
F0.46599999256432056
F0.8249999806284904
tp268
a(F1.19
F7.238581131343151
F-10.218232026551075
F0.596000000834465
F0.6109999902546406
tp269
a(F1.23
F7.14479721760589
F-10.146488109974502
F0.6960000116378069
F1.4680000208318233
tp270
a(F1.18
F7.1985605227282425
F-10.181332763092971
F0.3829999975860119
F0.7569999899715185
tp271
a(F1.32
F6.870097627798826
F-10.006587172579657
F0.2919999919831753
F0.5980000011622906
tp272
a(F1.4
F6.664962531198361
F-9.86929947635145
F0.4179999940097332
F1.244999997317791
tp273
a(F1.36
F6.718680214127106
F-9.90359649199901
F0.21900000236928463
F0.5199999865144491
tp274
a(F1.42
F6.622666132611842
F-9.86712317587271
F0.2749999947845936
F0.5460000075399876
tp275
a(F1.46
F6.501528585465228
F-9.798362736556044
F0.16100000403821468
F0.24000000022351742
tp276
a(F1.5
F6.389945993542614
F-9.732937334049234
F0.19199999794363976
F0.2409999966621399
tp277
a(F1.75
F5.66821870969728
F-9.285979936035565
F0.28899999894201756
F0.8880000226199627
tp278
a(F1.89
F5.239827728374543
F-9.047947847770525
F0.1919999998062849
F0.306999996304512
tp279
a(F1.88
F5.225337316473929
F-9.018466300856957
F0.16299999877810478
F0.1959999967366457
tp280
a(F2.97
F1.7209587896978877
F-4.833434448241161
F0.18600000254809856
F0.20899999514222145
tp281
a(F4.23
F6.008323933869609
F-10.281338962712988
F0.1789999958127737
F0.2899999972432852
tp282
a(F3.41
F0.46019831159539504
F-8.363420874447254
F0.25299999862909317
F0.36500001326203346
tp283
a(F1.59
F-2.6381429316693787
F-6.515642179822361
F0.2259999942034483
F0.3679999951273203
tp284
a(F1.62
F-2.579080292415026
F-6.554249452969468
F0.16200000047683716
F0.19199999794363976
tp285
a(F4.49
F-3.284371381053692
F-9.272389067521251
F0.23599999956786633
F0.617999978363514
tp286
a(F5.3
F-4.846955280040099
F-9.475199122847668
F0.28599999845027924
F0.3320000022649765
tp287
a(F5.16
F-4.90989500398862
F-9.43386798328202
F0.28699999675154686
F0.6169999968260527
tp288
a(F5.1
F-4.939107593218023
F-9.39130826732694
F0.1880000028759241
F0.36500000208616257
tp289
a(F2.21
F3.9140891691815956
F6.632305584703754
F0.2850000001490116
F0.36499999836087227
tp290
a(F3.53
F-6.389181515727708
F-10.431636766103487
F0.45100000500679016
F1.3850000239908695
tp291
a(F3.56
F-6.405597589832903
F-10.463108525427822
F0.27599999122321606
F0.5449999924749136
tp292
a(F3.53
F-6.377209129214219
F-10.41966437959
F0.22100000083446503
F0.625999990850687
tp293
a(F1.83
F-5.909992318916602
F-9.683495520402408
F0.2259999942034483
F0.17599999718368053
tp294
a(F1.18
F-8.116263712153012
F-10.895530022611645
F0.17900000140070915
F0.28399999998509884
tp295
a(F1.17
F-8.09970785378907
F-10.863971105201632
F0.25699999928474426
F0.6970000267028809
tp296
a(F1.11
F-8.072235247171736
F-10.854170695312067
F0.19099999964237213
F0.3160000015050173
tp297
a(F1.05
F-8.022631592195456
F-10.803134797443205
F0.1880000028759241
F1.0039999727159739
tp298
a(F1.03
F-8.020636032545372
F-10.801083539129696
F0.2609999943524599
F0.39900000020861626
tp299
a(F0.96
F-7.976311717180071
F-10.75889601363516
F0.24499999545514584
F0.43000001087784767
tp300
a(F0.76
F-7.845934236807938
F-10.615869335264227
F0.2410000003874302
F1.1640000138431787
tp301
a(F0.57
F-9.196062015894558
F-11.148089508174989
F0.17799999751150608
F0.2769999988377094
tp302
a(F0.4
F-9.03209166158468
F-10.973863900262886
F0.1599999964237213
F0.2540000006556511
tp303
a(F0.32
F-8.96973581620685
F-10.908728073758743
F0.1620000023394823
F0.21099999733269215
tp304
a(F0.15
F-8.793657201478034
F-10.726199058671858
F0.25699999928474426
F0.5619999915361404
tp305
a(F0.06
F-8.729873105797152
F-10.658656326493219
F0.15899999998509884
F0.2289999984204769
tp306
a(F0.03
F-8.673750596897221
F-10.582341776294935
F0.2880000025033951
F0.4169999938458204
tp307
a(F1.37
F4.485702020928907
F-7.647940834792029
F0.15600000135600567
F0.4320000074803829
tp308
a(F2.15
F3.904998100627511
F-6.841978714203744
F0.25299999862909317
F0.40400000661611557
tp309
a(F2.51
F3.6157742917103204
F-6.415864864083355
F0.43800000473856926
F0.6650000009685755
tp310
a(F2.5
F3.5707310882104037
F-6.304020312330431
F0.418999994173646
F0.730999993160367
tp311
a(F-1.63
F-2.0587176740919815
F5.3652506240451805
F0.41499999910593033
F0.6489999871701002
tp312
a(F-1.54
F-2.169582200941742
F5.251338299385602
F0.7700000014156103
F1.350999966263771
tp313
a(F1.71
F6.762622895157276
F-10.522255177486693
F0.9250000137835741
F1.1280000042170286
tp314
a(F1.85
F6.3067224258822545
F-10.30895056894763
F0.8860000111162663
F1.4610000438988209
tp315
a(F1.75
F6.358914442438586
F-10.302304629171559
F0.22299999929964542
F0.35599999129772186
tp316
a(F1.8
F6.397916901999298
F-10.34158917437581
F0.5630000028759241
F1.2680000197142363
tp317
a(F1.97
F5.872588069688475
F-10.106430574406769
F2.5849998965859413
F6.05799987912178
tp318
a(F1.88
F5.931309129628292
F-10.10283059174661
F0.5339999888092279
F0.584999980404973
tp319
a(F1.93
F5.9800722821072805
F-10.143445535904023
F1.0570000261068344
F1.2780000269412994
tp320
a(F2.11
F5.411906215684176
F-9.886730770502457
F1.9759999513626099
F11.390999989584088
tp321
a(F2.01
F5.474091139875673
F-9.884855589064221
F0.20500000193715096
F0.45599998719990253
tp322
a(F2.06
F5.525849145655882
F-9.92677232139742
F0.6169999800622463
F0.7230000160634518
tp323
a(F2.23
F4.949062720688677
F-9.663216464693608
F0.5609999932348728
F1.0739999786019325
tp324
a(F2.47
F4.069024757293409
F-9.188637332244175
F0.5690000019967556
F2.4879998974502087
tp325
a(F2.43
F4.216822889427427
F-9.238730693296795
F0.6349999941885471
F0.389000004157424
tp326
a(F2.59
F3.609380566121523
F-8.92114118749748
F1.754000000655651
F0.2860000114887953
tp327
a(F2.53
F3.7981935098240927
F-8.996704833406188
F0.4840000029653311
F0.2559999953955412
tp328
a(F2.69
F3.1917877558393832
F-8.670956018669626
F0.5999999847263098
F0.3320000134408474
tp329
a(F2.79
F2.737376931903075
F-8.369803339925591
F0.22699999809265137
F0.6140000019222498
tp330
a(F2.69
F2.8350839661522427
F-8.388881816189382
F0.6210000086575747
F0.6000000014901161
tp331
a(F2.75
F2.9185326700924437
F-8.436326023504545
F0.5490000005811453
F0.48499998822808266
tp332
a(F2.89
F2.290762700266978
F-8.060591822205659
F0.3499999940395355
F0.568999981507659
tp333
a(F2.84
F2.5119349991565754
F-8.150970895144788
F0.3840000107884407
F0.3549999911338091
tp334
a(F2.97
F1.873423773775365
F-7.754042663934113
F1.04100002348423
F0.3219999931752682
tp335
a(F2.93
F2.079233793291548
F-7.822988235535829
F0.548000006005168
F0.49600000493228436
tp336
a(F2.96
F1.7011895826870225
F-7.460443851836626
F0.5199999865144491
F0.5770000051707029
tp337
a(F3.05
F1.428567917318986
F-7.39415067856986
F3.2860000301152468
F1.1629999987781048
tp338
a(F2.94
F1.5613569538046839
F-7.425976927614244
F1.1139999981969595
F0.7279999982565641
tp339
a(F3.01
F1.6426310320495725
F-7.472913236372207
F1.3860000222921371
F0.9229999892413616
tp340
a(F3.03
F1.2822980093727696
F-7.11133353697389
F0.9730000011622906
F1.421000050380826
tp341
a(F3.12
F0.9891438410417221
F-7.012286243640334
F2.588999968022108
F2.8419999480247498
tp342
a(F3.01
F1.1263472748297851
F-7.043598181885707
F1.4690000228583813
F0.8380000106990337
tp343
a(F3.08
F1.2294137485099736
F-7.112326275668727
F0.7079999838024378
F0.805999968200922
tp344
a(F3.17
F0.6032806819912385
F-6.642485772146627
F0.6080000065267086
F0.6949999947100878
tp345
a(F3.07
F0.6433615928297036
F-6.581750785188201
F0.22199999913573265
F0.30399999767541885
tp346
a(F2.77
F5.4051559766810495
F-8.692448948797137
F0.3219999950379133
F0.3829999938607216
tp347
a(F2.68
F5.892113893762966
F-9.033223971074
F0.1789999958127737
F0.25899999402463436
tp348
a(F2.86
F4.992310766764565
F-8.2818003253233
F0.3869999907910824
F0.6619999967515469
tp349
a(F2.93
F4.582460554563182
F-7.866077634480025
F0.2239999994635582
F0.4510000068694353
tp350
a(F2.85
F4.594262535491611
F-7.7835074106929225
F0.25299999862909317
F0.37399998866021633
tp351
a(F3.36
F4.307593157450629
F-9.770700264891364
F0.20899999514222145
F0.21199999935925007
tp352
a(F3.36
F2.5022575111735437
F-9.079543307872166
F0.22499999776482582
F0.4829999916255474
tp353
a(F3.38
F2.997425610133107
F-9.239770036456976
F0.2239999994635582
F0.21199999563395977
tp354
a(F4.91
F3.33297329555253
F-9.973318279638278
F0.20200000330805779
F0.6769999861717224
tp355
a(F4.77
F2.8621783470563313
F-9.798469671563586
F0.516999987885356
F1.0340000167489052
tp356
a(F4.61
F2.3535366181690076
F-9.617731215051826
F0.19299999624490738
F0.30499999411404133
tp357
a(F4.11
F0.8758146883382811
F-9.035396412095299
F0.17599999718368053
F0.2259999942034483
tp358
a(F3.88
F-0.43740785979038477
F-8.765199110784879
F0.20999999344348907
F0.2719999961555004
tp359
a(F0.97
F-2.8374232627731675
F-5.821905609358853
F0.17400000244379044
F0.16299999877810478
tp360
a(F5.54
F-2.7348182694340517
F-9.022109541998459
F0.41799999214708805
F0.8619999885559082
tp361
a(F5.27
F-2.8846928920781734
F-9.008916907952532
F0.3879999928176403
F0.536999985575676
tp362
a(F4.98
F-3.0250873662987705
F-8.984388557217489
F0.17000000178813934
F0.20200000330805779
tp363
a(F5.31
F0.16080323125533066
F-9.660400029091164
F0.15600000135600567
F0.33399999886751175
tp364
a(F5.58
F0.3948589322197792
F-9.752169764211203
F0.17500000074505806
F0.3879999965429306
tp365
a(F5.02
F-0.1036494739877624
F-9.508248771663458
F0.2389999981969595
F0.7280000001192093
tp366
a(F5.27
F0.18706369428986627
F-9.60057409694159
F0.19199999794363976
F0.5799999907612801
tp367
a(F5.31
F0.14722553688950474
F-9.620251843096947
F0.29099999368190765
F0.3179999999701977
tp368
a(F5.61
F-2.740429005578474
F-9.339882367757149
F0.9669999778270721
F1.2000000067055225
tp369
a(F5.32
F-3.036489702557765
F-9.254191916199323
F0.7249999903142452
F0.8719999808818102
tp370
a(F5.48
F-2.892094101987996
F-9.210206850076405
F0.9039999917149544
F0.9769999831914902
tp371
a(F5.36
F-2.9809403082528365
F-9.108084282998618
F1.0700000002980232
F0.7819999903440475
tp372
a(F5.49
F-3.0180641871319835
F-9.229051376125586
F0.9609999805688858
F1.151999980211258
tp373
a(F5.02
F-3.332498864935147
F-9.15706842459551
F1.3689999766647816
F2.213999979197979
tp374
a(F5.18
F-3.189714414969073
F-9.121487089352566
F1.7609999924898148
F1.61599999666214
tp375
a(F5.07
F-3.2605036480392067
F-9.020215677940307
F2.2549999803304672
F1.9679999873042107
tp376
a(F5.19
F-3.312691621163009
F-9.142549355492578
F1.0920000076293945
F1.1119999922811985
tp377
a(F4.71
F-3.615208416511881
F-9.05709975756435
F1.952999971807003
F1.6589999422430992
tp378
a(F4.88
F-3.4586908140242256
F-9.028539721570548
F0.4369999933987856
F0.4689999967813492
tp379
a(F4.88
F-3.58790822670449
F-9.044645703368825
F0.7009999919682741
F0.865999998524785
tp380
a(F4.41
F-3.872702041775884
F-8.961793793297657
F0.6839999910444021
F1.2010000050067902
tp381
a(F4.57
F-3.7240775341804846
F-8.925205764297868
F0.582999998703599
F0.6710000094026327
tp382
a(F4.43
F-3.805822166144115
F-8.814511981269714
F0.178999999538064
F0.22399999760091305
tp383
a(F4.58
F-3.828805915886002
F-8.947921614005633
F0.6869999915361404
F0.972000002861023
tp384
a(F4.08
F-4.121629431634487
F-8.8470364331824
F0.9949999954551458
F1.0799999721348286
tp385
a(F4.24
F-3.9750708926165803
F-8.81900868492742
F0.5159999877214432
F0.7259999867528677
tp386
a(F4.26
F-4.07211792066637
F-8.834605721880614
F0.80299998447299
F0.8560000080615282
tp387
a(F3.75
F-4.3527833736559405
F-8.719675580961045
F1.1689999736845493
F1.5119999796152115
tp388
a(F3.93
F-4.189113035460411
F-8.703643302126004
F0.7349999956786633
F0.7069999855011702
tp389
a(F3.93
F-4.299980569059348
F-8.71834380968034
F0.8129999879747629
F0.8509999867528677
tp390
a(F3.43
F-4.549564193499602
F-8.592072439254041
F1.0739999935030937
F1.222000004723668
tp391
a(F3.59
F-4.4026435673150806
F-8.572390387004813
F0.5669999867677689
F0.5309999939054251
tp392
a(F3.61
F-4.490354903485744
F-8.59231214657387
F1.1169999800622463
F0.7919999845325947
tp393
a(F3.08
F-4.737947983654529
F-8.444408255083069
F1.4209999926388264
F1.0360000170767307
tp394
a(F3.26
F-4.584022116161222
F-8.439944337010077
F0.3749999925494194
F0.503999987617135
tp395
a(F3.27
F-4.6725807167204385
F-8.446066017209006
F0.4750000014901161
F0.41000000201165676
tp396
a(F2.72
F-4.907295006368488
F-8.283201694524937
F0.5329999905079603
F0.6769999843090773
tp397
a(F2.91
F-4.745644658555435
F-8.28391652073328
F0.2939999960362911
F0.2759999968111515
tp398
a(F2.75
F-4.803813584990069
F-8.139666020488763
F0.22699999995529652
F0.21099999733269215
tp399
a(F2.93
F-4.831852546532092
F-8.301417164927585
F0.3429999928921461
F0.369999997317791
tp400
a(F2.38
F-5.033168603424964
F-8.105974430294586
F0.16299999877810478
F0.2599999960511923
tp401
a(F2.54
F-4.8958794786419055
F-8.107887302911331
F0.16399999894201756
F0.22799999825656414
tp402
a(F0.49
F-5.3524353557665965
F-6.856704652979528
F0.21199999749660492
F0.2719999998807907
tp403
a(F-0.34
F4.279706664932849
F6.637566183395818
F0.8689999841153622
F2.251999944448471
tp404
a(F0.8
F-3.4033813561628157
F-6.626470438719179
F0.16299999877810478
F0.17899999767541885
tp405
a(F5.56
F-1.1434248290207738
F-9.7709381512166
F0.21199999563395977
F0.3049999959766865
tp406
a(F3.37
F-4.893409228065056
F-9.01969979878241
F0.35199999436736107
F0.7979999873787165
tp407
a(F3.73
F-4.824719573450557
F-9.085784552319648
F0.22299999743700027
F0.4160000067204237
tp408
a(F5.17
F-5.098684604848024
F-9.907240780025438
F0.29099999368190765
F0.6929999683052301
tp409
a(F5.2
F-4.919583542999408
F-9.86484602968326
F0.16199999675154686
F0.1789999958127737
tp410
a(F4.99
F-4.8931432939605255
F-9.861526872952705
F0.2089999970048666
F0.3650000113993883
tp411
a(F4.44
F-4.9878837358075625
F-9.740665105878115
F0.30399999767541885
F1.0070000123232603
tp412
a(F3.6
F-6.39467568420209
F-10.476816769680843
F0.18600000254809856
F0.7300000246614218
tp413
a(F3.59
F-6.318659739013309
F-10.41504891219165
F0.23599999956786633
F0.6910000145435333
tp414
a(F3.23
F-6.198245854869234
F-10.258603691341147
F0.17599999718368053
F0.38799999095499516
tp415
a(F2.07
F-5.832364241252135
F-9.750155901469496
F0.17599999718368053
F0.20500000193715096
tp416
a(F2.87
F-8.101785798900973
F-10.337207555270814
F0.15899999998509884
F0.19099999964237213
tp417
a(F2.91
F-8.209026690404713
F-10.398610619929514
F0.3069999944418669
F0.7560000140219927
tp418
a(F0.36
F-7.359793423951485
F-10.709454716334374
F0.20200000330805779
F0.33399999886751175
tp419
a(F0.11
F-7.065464629997063
F-10.516274269848667
F0.24199999682605267
F0.2369999997317791
tp420
a(F0.3
F-7.278723334970489
F-10.614509396022513
F0.16199999675154686
F0.19499999657273293
tp421
a(F-3.61
F8.110989376253402
F-11.97437082010182
F0.7870000042021275
F1.5669999979436398
tp422
a(F-1.9
F8.105312558686563
F-11.278647674683539
F0.2559999991208315
F0.3970000147819519
tp423
a(F0.23
F7.666613813987749
F-9.93555899174742
F2.0519999861717224
F3.8840000703930855
tp424
a(F0.12
F7.760910551486166
F-10.019011947000386
F0.5689999982714653
F0.7800000123679638
tp425
a(F0.57
F7.5292041735388135
F-9.662981167226164
F1.5489999894052744
F3.4600000232458115
tp426
a(F5.27
F3.011302859895242
F-10.10267769000277
F0.1730000004172325
F0.19599999487400055
tp427
a(F5.32
F1.4801524469906053
F-9.596438688105511
F0.1599999964237213
F0.23799999989569187
tp428
a(F5.67
F-5.513140903495755
F-10.508103720428718
F0.19099999964237213
F0.4000000115483999
tp429
a(F1.74
F6.30447504472785
F-9.121887507102098
F0.19499999471008778
F0.1620000023394823
tp430
a(F2.24
F6.4824412704432435
F-8.919962600688189
F0.27200000174343586
F0.7560000158846378
tp431
a(F2.47
F5.995135470678989
F-8.532840733058567
F0.15899999998509884
F0.3200000002980232
tp432
a(F2.61
F4.262698549780141
F-7.534442365046792
F0.20200000330805779
F0.3249999899417162
tp433
a(F2.81
F3.7258248753999186
F-7.083485397862093
F0.23599999956786633
F0.4689999893307686
tp434
a(F2.41
F5.692152522588826
F-9.150876887219324
F0.1919999998062849
F0.44600001350045204
tp435
a(F-1.88
F-0.7699331394144118
F3.9779095590984612
F0.2909999955445528
F0.7329999934881926
tp436
a(F-1.94
F-0.3808247768655036
F3.746363425396641
F0.4320000112056732
F0.8719999808818102
tp437
a(F-1.89
F-0.600291154857565
F3.653199263224642
F0.17599999904632568
F0.4870000034570694
tp438
a(F-2.05
F0.19516860950117249
F3.945203467971706
F0.2739999983459711
F0.858999976888299
tp439
a(F-2.09
F0.4173494911228268
F4.022058899639176
F0.7230000030249357
F1.6490000132471323
tp440
a(F4.76
F0.5063793776865205
F-9.010260662835814
F0.18600000254809856
F0.33500001206994057
tp441
a(F5.31
F3.3828302774975016
F-9.8876802597111
F0.1880000028759241
F0.20599999837577343
tp442
a(F3.56
F-3.6075100731438123
F-8.109949270634592
F0.2259999942034483
F0.5379999857395887
tp443
a(F-0.84
F1.585756072447711
F2.948286348895152
F0.15600000135600567
F0.17599999718368053
tp444
a(F-0.1
F0.10146593171744644
F-4.427761407731884
F0.23999999463558197
F0.8459999840706587
tp445
a(F-0.77
F0.22730944856008506
F-4.786047764578969
F0.17000000178813934
F0.4519999884068966
tp446
a(F0.47
F0.587668694895819
F2.4638691367210344
F0.1939999982714653
F0.35599999129772186
tp447
a(F0.64
F0.8677173138568333
F2.7179020669474285
F0.1730000004172325
F0.21900000236928463
tp448
a(F0.79
F0.765104359941859
F2.8020034554037165
F0.20200000330805779
F0.2389999981969595
tp449
a(F1.16
F0.2857928872140727
F2.6706829417614943
F0.23999999463558197
F0.30799999088048935
tp450
a(F1.03
F0.4855776052538252
F2.5371937121535812
F0.25499999709427357
F0.39499999955296516
tp451
a(F1.13
F0.07034961275725182
F2.5283412909100256
F2.5559999365359545
F4.833999982103705
tp452
a(F1.22
F-0.04403758621781062
F2.5563642447794006
F2.403000023216009
F4.189999956637621
tp453
a(F1.33
F-0.194233677405814
F2.587024935880435
F2.0259999949485064
F3.6799999959766865
tp454
a(F1.41
F-0.30611900834198447
F2.603580202218511
F2.0939999874681234
F3.3940000347793102
tp455
a(F1.49
F-0.42390984485046435
F2.613898398086747
F1.893999945372343
F3.299999937415123
tp456
a(F1.59
F-0.5690994412377145
F2.621862970708908
F2.0229999367147684
F3.809000004082918
tp457
a(F1.66
F-0.6900106351888458
F2.615195703581549
F1.987999938428402
F4.021000057458878
tp458
a(F1.64
F0.4299785993203382
F3.3113241184754707
F0.389000004157424
F0.8760000206530094
tp459
a(F1.74
F-0.3126895745655731
F3.1883560491396183
F0.21900000236928463
F0.8429999928921461
tp460
a(F1.74
F-1.0252519053174387
F2.8806752360895262
F0.3020000122487545
F0.5490000005811453
tp461
a(F1.49
F-1.341295334919041
F2.5181450182759804
F0.23999999836087227
F0.34099998883903027
tp462
a(F1.77
F0.4999800226782316
F3.4155782798880154
F0.4460000079125166
F1.3420000206679106
tp463
a(F1.82
F-0.8165399050672515
F3.1266061255794013
F0.27599999122321606
F0.40400000661611557
tp464
a(F1.8
F-0.995480031656514
F3.1487190061279717
F0.31900001130998135
F0.36700001172721386
tp465
a(F1.78
F-1.1302530064134035
F3.1509273270384766
F0.15600000135600567
F0.25100000388920307
tp466
a(F1.75
F-1.3038609926571703
F3.151517643228528
F0.1720000021159649
F0.19299999624490738
tp467
a(F1.58
F-0.8523866655263266
F3.2188187854743013
F0.19299999624490738
F0.2520000021904707
tp468
a(F-3.79
F-0.7872318406713452
F-6.831135013803829
F0.15800000168383121
F0.2429999951273203
tp469
a(F1.86
F-1.3186063429853734
F3.5196266766388926
F0.17599999718368053
F0.23599999956786633
tp470
a(F1.24
F-1.6176393018960538
F2.9807973684057627
F0.16299999505281448
F0.16299999691545963
tp471
a(F1.43
F-1.8944273135466254
F3.4317062345387783
F0.1720000021159649
F0.15600000135600567
tp472
a(F2.03
F-0.3385435783375474
F3.698741727003407
F0.1730000004172325
F0.42199998907744884
tp473
a(F2.16
F0.4607539557012818
F3.7529756109927073
F0.25799999572336674
F0.3959999978542328
tp474
a(F2.12
F-0.9562383909800216
F3.711783686646476
F0.18600000254809856
F0.3719999920576811
tp475
a(F1.67
F-1.0023252033439891
F3.2371351158175017
F0.16299999505281448
F0.227999996393919
tp476
a(F2.01
F-1.08034424565087
F3.702674644756286
F0.17000000178813934
F0.39800001308321953
tp477
a(F1.25
F-1.8667404803757468
F3.489050311754186
F43.064999997615814
F0.5369999837130308
tp478
a(F1.71
F-0.795455158949662
F3.37535649634102
F0.15600000135600567
F0.3069999925792217
tp479
a(F2.04
F-0.8864983919909349
F3.8354860693578723
F0.218000004068017
F0.4140000119805336
tp480
a(F1.89
F-0.9764834849064578
F3.7954520834299004
F0.17599999718368053
F0.2389999981969595
tp481
a(F1.75
F-1.0671630988725107
F3.7450708808202076
F0.16299999877810478
F0.3009999990463257
tp482
a(F1.56
F-1.1747487663040137
F3.6835304171621384
F0.20599999837577343
F0.32499999180436134
tp483
a(F1.41
F-1.2652216932622509
F3.6218482450757326
F0.18600000254809856
F0.37200000509619713
tp484
a(F1.96
F0.06400663416381525
F3.4725874209161223
F0.23899999633431435
F0.33999999053776264
tp485
a(F1.28
F-0.35732637829028413
F3.1274473379454735
F0.22199999913573265
F0.3680000100284815
tp486
a(F1.68
F-1.2492482074853082
F3.8109854799239256
F0.3019999973475933
F0.6629999987781048
tp487
a(F0.96
F-1.6248016635907319
F3.576058780854726
F0.2929999902844429
F0.6800000127404928
tp488
a(F1.85
F-0.8197128493401403
F3.7387376196701063
F0.1899999976158142
F0.27199999801814556
tp489
a(F1.35
F-0.07057050825733002
F3.027182232347803
F0.6950000133365393
F0.845999987795949
tp490
a(F-2.65
F-0.07706188184906915
F-5.157551994832096
F0.17000000178813934
F0.19099999964237213
tp491
a(F1.69
F-0.6809006635093426
F3.5596226351219804
F0.17000000178813934
F0.4979999903589487
tp492
a(F1.14
F-0.6692945569433553
F3.0507170919280955
F0.17000000178813934
F0.210999995470047
tp493
a(F1.32
F-0.5990344547282713
F3.309957865452933
F0.1749999988824129
F0.4369999896734953
tp494
a(F-0.21
F-1.0720259373342595
F2.775786573990192
F0.17599999718368053
F0.37200000509619713
tp495
a(F-1.89
F-0.2822846518430393
F-4.747045413814708
F0.16100000403821468
F0.6459999978542328
tp496
a(F-1.89
F-0.2822846518430393
F-4.747045413814708
F0.19599999487400055
F0.29299999587237835
tp497
a(F-0.06
F-0.04081060831659489
F2.5831146302348498
F0.2259999942034483
F0.648999996483326
tp498
a(F0.14
F0.2702996676397931
F2.280447834393211
F0.3089999910444021
F0.27199999801814556
tp499
a(F-0.53
F0.4884182457833537
F2.2853419584778867
F0.28899999521672726
F0.404999990016222
tp500
a(F-1.15
F0.6733650763073755
F2.2402037108250994
F0.32599999010562897
F0.3889999929815531
tp501
a(F0.09
F-0.2937280307357488
F2.7349200906360207
F0.18600000254809856
F0.19199999794363976
tp502
a(F-0.27
F-0.4473654114534351
F2.956661175913693
F0.23999999463558197
F0.5649999994784594
tp503
a(F-0.85
F-0.07620606478872838
F2.8875290266743416
F0.23999999463558197
F0.7109999973326921
tp504
a(F-1.45
F0.29844125394161747
F2.7521908048517774
F0.28999999165534973
F0.7929999940097332
tp505
a(F-0.31
F-0.1907603830121105
F2.5817212676884163
F0.25299999862909317
F0.4729999862611294
tp506
a(F-0.31
F-0.3599562261602256
F2.8085507573310324
F0.2089999970048666
F0.23500000312924385
tp507
a(F0.62
F-0.5517171028603971
F-3.8037193743111133
F0.3209999930113554
F0.4069999922066927
tp508
a(F1.56
F-1.2456613206821117
F-4.312078819834059
F0.178999999538064
F0.332999998703599
tp509
a(F1.34
F-0.9552070580208589
F-4.511006745832563
F0.1589999981224537
F0.1939999982714653
tp510
a(F-0.81
F0.5567773327895778
F2.398899372466066
F0.5490000005811453
F1.1810000240802765
tp511
a(F-1.26
F0.8425784533609824
F2.496712104261951
F0.333000011742115
F1.0980000011622906
tp512
a(F-1.72
F1.1405685482223025
F2.55323974331912
F0.6160000246018171
F2.180999904870987
tp513
a(F-1.2
F0.8151417414738062
F2.2815925146887084
F0.22100000083446503
F0.43399999290704727
tp514
a(F-1.33
F0.6502536922188351
F2.809407467640968
F0.2199999988079071
F0.41799999214708805
tp515
a(F-1.75
F1.107463552400052
F2.825736114663641
F0.20599999837577343
F0.5289999898523092
tp516
a(F-1.27
F0.7256603719349306
F2.7110703310196476
F0.17000000178813934
F0.2860000114887953
tp517
a(F-1.06
F0.25575165827906066
F2.7243291008025015
F0.2559999953955412
F0.23999999649822712
tp518
a(F-1.42
F0.773195085712139
F2.841950928829332
F0.20500000193715096
F0.2909999955445528
tp519
a(F-1.75
F1.2632584249271435
F2.920234359021413
F0.22299999743700027
F0.2899999972432852
tp520
a(F-1.36
F0.4926856058235223
F2.9486881056002665
F0.2030000016093254
F0.4160000067204237
tp521
a(F-1.66
F0.9206303546727733
F3.0741922763363756
F0.2719999961555004
F0.5430000089108944
tp522
a(F1.81
F-0.6717555010110892
F-4.1808694453273585
F1.2600000202655792
F1.9660000186413527
tp523
a(F2.0
F-0.5624901056997493
F-4.40440206292297
F0.1599999964237213
F0.6449999697506428
tp524
a(F2.92
F-1.7188986554808143
F-5.5265329069018785
F0.17599999718368053
F0.31900001130998135
tp525
a(F-1.26
F0.26918963147209873
F2.742082798778805
F0.44800000824034214
F1.1799999978393316
tp526
a(F-1.52
F0.8201854695563982
F2.919161276443927
F0.21099999733269215
F0.20999999344348907
tp527
a(F-1.08
F0.3578038874006484
F2.484559972600984
F0.49500000663101673
F1.0320000164210796
tp528
a(F-1.34
F0.8666427411959097
F2.6348839686004153
F0.3549999911338091
F0.6959999967366457
tp529
a(F1.51
F-0.0306228778885842
F-3.8635844405049413
F0.3169999998062849
F0.779999976977706
tp530
a(F1.86
F-0.33846106545899746
F-4.411265943186298
F0.16199999675154686
F0.49699999392032623
tp531
a(F2.2
F-0.6408784094737299
F-4.943002086906958
F0.3179999999701977
F0.40000000037252903
tp532
a(F2.04
F0.10802490532343523
F-4.849819628474257
F0.49599999375641346
F0.7279999945312738
tp533
a(F2.52
F-0.9157826029722029
F-5.428300525313566
F0.1720000021159649
F0.2759999930858612
tp534
a(F2.33
F-0.12913683340333604
F-5.333005997916955
F0.2849999964237213
F0.48799998313188553
tp535
a(F5.47
F-2.477155305974937
F-9.95441591942161
F0.19199999794363976
F0.22199999913573265
tp536
a(F3.19
F-0.3132282036283782
F-6.805983988903973
F0.15600000135600567
F0.37199999019503593
tp537
a(F4.97
F-4.048023208709329
F-8.805511038387861
F0.19199999794363976
F0.453999986872077
tp538
a(F4.67
F-3.0489733979347333
F-8.482332435546443
F0.37099999375641346
F0.8269999753683805
tp539
a(F5.11
F-3.9251377806401453
F-8.975092994203312
F0.2220000009983778
F0.401999993249774
tp540
a(F5.64
F-5.370268914602487
F-9.5561038579499
F0.16199999675154686
F0.2860000003129244
tp541
a(F5.32
F-4.348918999402789
F-9.205106941927697
F0.28799999691545963
F0.2919999957084656
tp542
a(F5.52
F-4.75598879070993
F-9.434785120360182
F0.16299999505281448
F0.4039999898523092
tp543
a(F2.93
F-0.6628002025142821
F-6.020155347132197
F0.15600000135600567
F0.23799999989569187
tp544
a(F2.96
F0.3556980225241331
F-5.663771234476081
F0.30499999411404133
F0.4370000045746565
tp545
a(F3.18
F-0.14817533441387898
F-6.071037868052258
F0.21900000236928463
F0.544000007212162
tp546
a(F3.58
F-1.1489802970973226
F-6.826872821730224
F0.1599999964237213
F0.3089999910444021
tp547
a(F4.56
F-4.023724429662522
F-8.838533793568716
F0.16100000403821468
F0.22300000116229057
tp548
a(F4.96
F-5.322789750730104
F-9.754550356664762
F0.23800000175833702
F0.17599999904632568
tp549
a(F-2.0
F0.2686146494547472
F3.8189006967016565
F0.16299999505281448
F0.16299999505281448
tp550
a(F-2.17
F0.45550599543291137
F3.955589107322689
F0.2259999942034483
F0.4059999864548445
tp551
a(F3.86
F0.46251850064788347
F-7.002879656770897
F0.1599999964237213
F0.18600000254809856
tp552
a(F-0.7
F1.1615371572947149
F3.1486591363297074
F0.1899999976158142
F0.2409999966621399
tp553
a(F-0.47
F1.0132964833817515
F3.0515546409350915
F0.1899999976158142
F0.3320000134408474
tp554
a(F2.72
F0.39978840299930374
F-5.313934931515644
F0.15600000135600567
F0.2569999974220991
tp555
a(F2.49
F0.16989891182892203
F-5.627517407989477
F0.19199999794363976
F0.38899999111890793
tp556
a(F3.31
F0.19192004151153164
F-6.011400670792082
F0.1599999964237213
F0.37099999375641346
tp557
a(F3.08
F-0.06775303010558931
F-6.342287013090958
F0.20599999837577343
F0.4370000045746565
tp558
a(F2.38
F-0.9071810047885487
F-7.274468165160473
F0.1899999976158142
F0.18600000254809856
tp559
a(F2.27
F0.6673229288824074
F-5.857788216287098
F0.1599999964237213
F0.16299999505281448
tp560
a(F1.73
F0.5068704279552292
F-6.1900495840632175
F0.1599999964237213
F0.15800000168383121
tp561
a(F0.59
F0.05209443997090002
F-6.863167159616284
F0.1899999976158142
F0.30000001192092896
tp562
a(F-0.27
F-0.433551339117745
F-7.385569927267364
F0.1599999964237213
F0.28899999521672726
tp563
a(F-1.66
F-0.5635214191668583
F3.16868462078065
F0.1599999964237213
F0.3029999975115061
tp564
a(F-0.13
F-0.11154012230653665
F2.8428560539249426
F0.2559999953955412
F0.19199999794363976
tp565
a(F0.56
F0.05158180291962644
F2.537388270249458
F0.15600000135600567
F0.1880000028759241
tp566
a(F-0.2
F-0.1875537097409936
F2.6213786067585
F0.1899999976158142
F0.35799998976290226
tp567
a(F2.49
F-0.7168496607652157
F-6.525322939087166
F0.1720000021159649
F0.2739999983459711
tp568
a(F-1.64
F0.18731961905213557
F3.7669657156599206
F0.21900000236928463
F0.3020000122487545
tp569
a(F-1.83
F0.1159790801034053
F3.6569167526410182
F0.1730000004172325
F0.38699999265372753
tp570
a(F-1.67
F0.1629164341507192
F3.622206430115546
F0.20599999837577343
F0.2739999946206808
tp571
a(F-1.47
F0.2254452559234772
F3.5769031116226606
F0.19299999624490738
F0.3379999976605177
tp572
a(F1.07
F-0.4182340251814183
F2.781668658042478
F0.5279999952763319
F0.8660000003874302
tp573
a(F0.08
F-0.3651596633658647
F2.7305559488445126
F0.16199999675154686
F0.4509999956935644
tp574
a(F0.79
F-0.46836516006222806
F2.5402635317670215
F0.2719999961555004
F0.632999999448657
tp575
a(F1.55
F0.5541130433714065
F-3.813092549794352
F0.1749999988824129
F0.35699999146163464
tp576
a(F1.74
F0.34040409066705646
F-4.414030741875255
F0.23999999463558197
F0.25200000032782555
tp577
a(F1.41
F0.3413988634021585
F-4.7276925521518205
F0.22100000083446503
F0.33899999037384987
tp578
a(F-0.95
F-0.3271024282037507
F2.917645334168351
F0.19299999624490738
F0.5940000023692846
tp579
a(F-0.32
F-0.3775235255622513
F2.915792342337844
F0.19100000150501728
F0.487999988719821
tp580
a(F1.62
F-0.528902785919211
F2.6714961137168656
F0.22499999776482582
F0.5309999939054251
tp581
a(F0.4
F-0.38104042906229485
F2.709750916897
F0.24099999852478504
F0.39199999161064625
tp582
a(F1.3
F-0.8001579323502102
F2.744519567618963
F0.25999999046325684
F0.2850000001490116
tp583
a(F-0.04
F-0.23659363734489158
F3.0495436691907445
F0.16299999505281448
F0.4229999855160713
tp584
a(F1.02
F-0.323172587141769
F3.3045971894897774
F0.1789999958127737
F0.38499999791383743
tp585
a(F-0.16
F0.14926018259617901
F3.1211111332471715
F0.15800000168383121
F0.16299999691545963
tp586
a(F1.69
F-0.5938828855776335
F3.2645764175303276
F0.16300000064074993
F0.22700000181794167
tp587
a(F-0.13
F1.4168565270781792
F4.150304465502753
F0.18900000117719173
F0.1639999970793724
tp588
a(F1.95
F0.005276301135355155
F3.6799033903806126
F0.1589999981224537
F0.1720000021159649
tp589
a(F0.08
F0.6665848191999539
F3.6567185397995967
F0.1789999958127737
F0.20500000193715096
tp590
a(F0.85
F0.06266520134328513
F3.586505142212853
F0.25899999402463436
F0.5339999888092279
tp591
a(F-0.07
F0.4389253667021251
F3.319934050216525
F0.17500000074505806
F0.19499999843537807
tp592
a(F1.37
F-0.3400721168701988
F3.491922521478328
F0.15600000135600567
F0.4839999917894602
tp593
a(F0.49
F0.036683149310356544
F3.2623679755999357
F0.1730000004172325
F0.21099999360740185
tp594
a(F1.87
F-0.7306925681447994
F3.359109771136999
F0.2259999942034483
F0.5179999843239784
tp595
a(F1.55
F-0.7000962815919035
F3.0227404645965876
F0.2089999970048666
F0.35100001096725464
tp596
a(F-0.11
F0.7241340927208864
F-4.063666040904005
F0.20999999344348907
F0.20799999870359898
tp597
a(F0.29
F-0.5639618669750281
F2.756074150452446
F0.4519999884068966
F1.130999969318509
tp598
a(F0.81
F-0.857905850883242
F2.8504273565995524
F0.3560000043362379
F0.6810000073164701
tp599
a(F0.05
F-0.5188166424468008
F2.5668482953485654
F0.17599999718368053
F0.32199999690055847
tp600
a(F1.29
F-1.1232845814942325
F2.9171383368317256
F0.25200000032782555
F0.6669999789446592
tp601
a(F0.56
F-0.7804754027892133
F2.6506094875435724
F0.2689999993890524
F0.6210000086575747
tp602
a(F1.77
F-1.374896281770171
F2.9414705520593114
F0.44900001026690006
F0.5819999873638153
tp603
a(F1.1
F-1.0395263846793747
F2.6945424012644534
F0.2199999988079071
F0.3689999971538782
tp604
a(F1.61
F-1.2830807511725746
F2.6973830662531575
F0.17000000178813934
F0.29099999368190765
tp605
a(F0.65
F0.1362412040500396
F3.407899936951978
F0.16299999877810478
F0.1620000023394823
tp606
a(F1.83
F-0.6012424239118155
F3.55042072588697
F0.19499999657273293
F0.2289999984204769
tp607
a(F0.89
F-0.057328601005146584
F3.5064146865540033
F0.17599999718368053
F0.3020000122487545
tp608
a(F1.34
F-0.5178131777555228
F3.489525134869087
F0.1899999976158142
F0.4000000059604645
tp609
a(F0.85
F-0.7225054089962106
F2.934870370208336
F0.1599999964237213
F0.23599999956786633
tp610
a(F0.88
F-0.37527987090299675
F3.0372732515589633
F0.22199999913573265
F0.4380000028759241
tp611
a(F1.24
F-0.7643591833715473
F3.231030699276726
F0.1899999976158142
F0.5110000055283308
tp612
a(F1.88
F-1.4826988476530385
F3.4646165171217334
F0.2599999960511923
F1.0549999680370092
tp613
a(F1.48
F-0.03137757672209296
F3.8998808818782136
F0.17899999395012856
F0.21199999749660492
tp614
a(F1.77
F-0.6387073250057571
F3.7348913781020805
F0.25300000235438347
F0.4879999868571758
tp615
a(F2.0
F-1.1893375670968105
F3.5195421487931053
F0.4679999891668558
F0.9599999971687794
tp616
a(F-0.89
F-0.17483032764317663
F-3.8745778011787455
F0.15600000135600567
F0.19099999964237213
tp617
a(F1.17
F-0.11180364848942492
F3.4124484588682344
F0.7729999832808971
F1.3639999814331532
tp618
a(F1.45
F-0.6508473070013125
F3.5195161148331167
F0.4350000061094761
F1.1189999971538782
tp619
a(F0.94
F-0.20279322859093352
F3.1239440648014725
F0.46900000609457493
F0.9099999740719795
tp620
a(F1.71
F-1.1330948916261847
F3.590307746093661
F0.5119999963790178
F1.0349999871104956
tp621
a(F1.25
F-0.713654722180499
F3.2188361739982647
F0.46799999102950096
F0.6389999911189079
tp622
a(F1.96
F-1.6205404549206004
F3.6443812646833766
F0.587000010535121
F0.9479999952018261
tp623
a(F1.53
F-1.2037745272346418
F3.2816200167011425
F0.41999999061226845
F0.5920000113546848
tp624
a(F2.17
F-2.0434551677658184
F3.654484233088862
F0.4649999924004078
F1.0129999797791243
tp625
a(F1.79
F-1.665525721464537
F3.3059085500120218
F0.35499999299645424
F0.7359999939799309
tp626
a(F2.0
F-2.0531362385129714
F3.267521131571221
F0.3160000015050173
F0.6179999969899654
tp627
a(F1.2
F-0.1338794926937088
F3.350257451151011
F0.33500001206994057
F0.6110000032931566
tp628
a(F2.13
F-1.794141692764237
F3.8160442827942354
F0.16199999675154686
F0.2899999972432852
tp629
a(F1.6
F0.5840532504704055
F4.455223773197581
F0.16299999505281448
F0.16299999877810478
tp630
a(F1.65
F0.4656854164808928
F4.451058715005379
F0.2369999997317791
F0.22100000269711018
tp631
a(F1.7
F0.34915787479568716
F4.436543992066432
F0.15899999998509884
F0.19499999657273293
tp632
a(F1.2
F0.9603163333581979
F4.189287256954499
F0.15899999998509884
F0.17999999783933163
tp633
a(F1.68
F0.3808555587374818
F4.418997230902569
F0.16200000047683716
F0.22100000083446503
tp634
a(F1.36
F0.5020926145897184
F4.089465378826523
F0.20800000056624413
F0.2919999975711107
tp635
a(F1.47
F0.17245163402873898
F4.04053814307787
F0.19599999859929085
F0.3199999984353781
tp636
a(F1.99
F-0.7334315659500823
F4.257450100059165
F0.2569999974220991
F0.3819999974220991
tp637
a(F1.58
F-0.16188710688703734
F3.9887075204900007
F0.18900000117719173
F0.2439999971538782
tp638
a(F1.68
F-0.49175002337280405
F3.931310402705203
F0.15600000135600567
F0.22899999655783176
tp639
a(F1.75
F-0.7754252020787569
F3.858929613385372
F0.15600000135600567
F0.2569999974220991
tp640
a(F1.57
F-0.4458786465726057
F3.541986409513095
F0.19299999624490738
F0.4519999921321869
tp641
a(F1.75
F-0.989520741188779
F3.6687404184138694
F0.2050000000745058
F0.5109999943524599
tp642
a(F1.91
F-1.4805820841269126
F3.767585903778686
F0.2689999993890524
F0.6929999720305204
tp643
a(F1.52
F-0.9786072973796902
F3.3908223639681356
F0.19299999624490738
F0.3160000015050173
tp644
a(F2.05
F-1.9693807257339564
F3.828703171450208
F0.2889999933540821
F0.465000007301569
tp645
a(F1.69
F-1.4851976511082683
F3.4599473767998017
F0.20599999837577343
F0.28799999691545963
tp646
a(F2.16
F-2.415365857489836
F3.837228471167224
F0.16299999505281448
F0.33699999563395977
tp647
a(F-5.74
F3.155226899172547
F-11.19157381941245
F0.5489999987185001
F41.0
tp648
a(F1.7
F-0.26764732385949586
F3.907013718348872
F0.1599999964237213
F0.36500001326203346
tp649
a(F1.73
F-0.37989287286624274
F3.9477441174063115
F0.20599999837577343
F0.33699999563395977
tp650
a(F1.77
F-0.47948742378060283
F3.9745633195332823
F0.22199999913573265
F0.2929999902844429
tp651
a(F2.04
F-1.44512453656115
F4.116900226220647
F0.1730000004172325
F0.34099999256432056
tp652
a(F2.12
F-1.8813377344384432
F4.076207955028236
F0.17599999718368053
F0.30799999460577965
tp653
a(F1.85
F-1.5901197586557707
F3.726740754270145
F0.16299999877810478
F0.22799999453127384
tp654
a(F1.69
F1.2546321075506366
F4.566711436918983
F0.3020000122487545
F0.3419999908655882
tp655
a(F1.73
F1.065920558422866
F4.564480213967947
F0.23999999463558197
F0.43899998627603054
tp656
a(F1.76
F0.9098018002780224
F4.5584887477307765
F0.21900000236928463
F0.31900001130998135
tp657
a(F1.79
F0.7232696216739996
F4.54822954410732
F0.2259999942034483
F0.5040000006556511
tp658
a(F1.82
F0.5679712115663338
F4.544162795872816
F0.2719999961555004
F0.46800000593066216
tp659
a(F1.84
F0.41304350966974845
F4.540963723792162
F0.2559999953955412
F0.3379999939352274
tp660
a(F1.87
F0.22944745288514445
F4.523939496370781
F0.23999999463558197
F0.47099998593330383
tp661
a(F1.58
F0.411004156099783
F4.215766391845916
F0.1599999964237213
F0.2050000000745058
tp662
a(F1.9
F0.0777770487792484
F4.512981440176471
F0.2589999921619892
F0.4139999970793724
tp663
a(F1.92
F-0.11427537521961262
F4.500829892599462
F0.23999999463558197
F0.5179999861866236
tp664
a(F1.64
F0.0635937004180811
F4.175550504403654
F0.20599999837577343
F0.28600000217556953
tp665
a(F1.94
F-0.26250098592709326
F4.482182012472542
F0.2860000114887953
F0.5820000004023314
tp666
a(F1.66
F-0.09417166763998353
F4.1591849212499294
F0.17000000178813934
F0.2569999974220991
tp667
a(F1.96
F-0.4110674397548413
F4.464087461462521
F0.32499999180436134
F0.6370000094175339
tp668
a(F1.68
F-0.2392092334433975
F4.131654965819198
F0.1599999964237213
F0.4029999915510416
tp669
a(F1.98
F-0.5961426995751536
F4.436320917739404
F0.2199999988079071
F0.5309999883174896
tp670
a(F1.71
F-0.43262740174767633
F4.106755959963339
F0.16199999675154686
F0.23999999649822712
tp671
a(F2.0
F-0.7539547269571962
F4.422609052881561
F0.3350000102072954
F0.468000004068017
tp672
a(F1.73
F-0.5834280991521712
F4.0743116832589905
F0.18600000254809856
F0.3569999895989895
tp673
a(F2.02
F-0.9348269554483045
F4.387916077453684
F0.2689999993890524
F0.5679999999701977
tp674
a(F1.75
F-0.7732763188956293
F4.042340855270281
F0.18600000254809856
F0.301000002771616
tp675
a(F2.03
F-1.0782360867296001
F4.364495535677213
F0.3160000126808882
F0.5339999869465828
tp676
a(F2.05
F-1.2287906302511689
F4.334828704062615
F0.1899999976158142
F0.5339999850839376
tp677
a(F2.06
F-1.4070369764244601
F4.304130115505066
F0.35199999436736107
F0.41799999214708805
tp678
a(F1.8
F-1.2404552936271602
F3.9239412883761253
F0.17000000178813934
F0.2850000001490116
tp679
a(F2.07
F-1.5436544927408875
F4.264517110318462
F0.20599999837577343
F0.3219999931752682
tp680
a(F1.81
F-1.4181495829925002
F3.869046623794235
F0.18600000254809856
F0.22699999436736107
tp681
a(F2.07
F-1.7151991273647058
F4.217247637564368
F0.3199999928474426
F0.4620000123977661
tp682
a(F1.83
F-1.8678675450846587
F3.7113396045739093
F0.19199999794363976
F0.3209999930113554
tp683
a(F1.5
F-0.05490466572895958
F3.383836037794756
F0.3179999999701977
F0.4229999892413616
tp684
a(F1.84
F-0.5005997595275973
F3.742981734499614
F0.37200000509619713
F0.6429999880492687
tp685
a(F1.61
F-0.6143388703696144
F3.525580211504497
F0.2030000016093254
F0.21099999360740185
tp686
a(F1.93
F-1.0488075260850362
F3.8833231427840107
F0.3719999920576811
F0.7239999994635582
tp687
a(F1.7
F-1.1611741006869387
F3.6397441013749443
F0.1599999964237213
F0.3069999944418669
tp688
a(F2.0
F-1.5757290997584041
F3.9908803111745934
F0.2510000001639128
F0.5129999946802855
tp689
a(F2.04
F-2.060201879689274
F4.059208455141982
F0.29099999368190765
F0.5650000013411045
tp690
a(F1.79
F-2.1368653200093117
F3.7014072448957815
F0.16199999675154686
F0.41700000688433647
tp691
a(F2.05
F-2.530516313413529
F4.072771298202552
F0.37099999375641346
F0.6950000002980232
tp692
a(F1.9
F0.3546761771327631
F4.212793724722809
F0.15600000135600567
F0.19199999794363976
tp693
a(F1.78
F0.8744150637020509
F4.356392820683225
F0.286999998614192
F0.8189999833703041
tp694
a(F2.06
F0.7631195961661574
F4.64291485009388
F0.3199999965727329
F1.0880000181496143
tp695
a(F1.81
F0.15505320364684994
F4.307489895947338
F0.40200000628829
F0.613000001758337
tp696
a(F2.08
F0.09387739922432092
F4.621865993531585
F0.46900000609457493
F1.6500000469386578
tp697
a(F1.81
F-0.5004599210896251
F4.221924777391101
F0.20700000040233135
F0.8110000099986792
tp698
a(F2.07
F-0.5969036496639272
F4.567886349119649
F0.3529999926686287
F0.9920000154525042
tp699
a(F1.78
F-1.186142857090725
F4.092448818451271
F0.18900000117719173
F0.4539999905973673
tp700
a(F2.04
F-1.270252379719075
F4.478938968893717
F0.27599999122321606
F0.9040000066161156
tp701
a(F1.72
F-1.8375330756495272
F3.9179667444672974
F0.17500000074505806
F0.4000000134110451
tp702
a(F1.98
F-1.8683057350727978
F4.358948894832806
F0.25799999572336674
F0.727999996393919
tp703
a(F2.14
F-0.30347193057189603
F3.9710306603052197
F0.2050000000745058
F0.38499999418854713
tp704
a(F2.24
F1.2575152089461001
F5.106179932830557
F0.16199999675154686
F0.39699999801814556
tp705
a(F2.17
F0.5899020590685818
F4.965542247144703
F0.227999996393919
F0.5149999894201756
tp706
a(F2.08
F-0.051331872822575716
F4.784452117560176
F0.35099999606609344
F0.48099999502301216
tp707
a(F1.58
F-1.2271923285646131
F3.837055093294806
F0.17500000074505806
F0.29099999740719795
tp708
a(F1.78
F-1.478979929717898
F4.178029393274584
F0.27399999648332596
F0.57799999602139
tp709
a(F2.3
F0.2416829815867121
F4.730804967597821
F0.21900000236928463
F0.24299999326467514
tp710
a(F2.54
F1.6017542453086575
F5.2997941822028825
F0.3689999934285879
F0.9709999896585941
tp711
a(F2.36
F0.8672833898988687
F5.126874706446509
F0.35299999453127384
F1.0830000005662441
tp712
a(F2.21
F0.2938250913072961
F4.9628911551703805
F0.5330000035464764
F0.9800000246614218
tp713
a(F1.87
F0.06893879186822077
F4.508728878397062
F0.22499999776482582
F0.5819999873638153
tp714
a(F2.0
F-0.38813299192981826
F4.722470798803128
F0.3729999903589487
F1.0930000208318233
tp715
a(F1.76
F-1.0627681467104917
F4.430629721023994
F0.4210000019520521
F1.0470000356435776
tp716
a(F1.39
F-1.3347032780252546
F3.800897029586023
F0.20599999837577343
F0.4790000095963478
tp717
a(F1.52
F-1.6964217395199213
F4.098514923229522
F0.6599999871104956
F1.2919999863952398
tp718
a(F2.62
F0.3699456566370962
F4.8920980502349956
F0.5209999848157167
F1.1499999687075615
tp719
a(F2.26
F0.19164034835194577
F4.574339222538963
F0.16299999877810478
F0.34999999590218067
tp720
a(F2.43
F-0.305400368814683
F4.864987764203668
F0.5979999992996454
F1.1179999858140945
tp721
a(F2.07
F-0.4847424623669433
F4.50998817448992
F0.23799999989569187
F0.22700000181794167
tp722
a(F2.23
F-0.960862646702625
F4.817281728072735
F0.6799999978393316
F0.7529999855905771
tp723
a(F1.86
F-1.1053851271247725
F4.409623069630025
F0.16199999675154686
F0.276999993249774
tp724
a(F2.01
F-1.5628837694125868
F4.741481063291944
F0.3680000100284815
F0.7730000112205744
tp725
a(F1.75
F-2.168026487210536
F4.620072390104208
F0.38499999046325684
F0.7620000131428242
tp726
a(F1.33
F-2.3243956460359083
F4.05170720233106
F0.16199999675154686
F0.28699999675154686
tp727
a(F1.48
F-2.6859575735653105
F4.449904521422635
F0.26800000108778477
F0.5000000055879354
tp728
a(F2.44
F-0.7728725802659744
F4.775791864445833
F0.1899999976158142
F0.7290000077337027
tp729
a(F2.37
F-0.922137448508771
F4.780094403792266
F0.17599999718368053
F0.7149999774992466
tp730
a(F2.05
F-0.9194642978487493
F4.435283143315109
F0.16299999505281448
F0.20899999514222145
tp731
a(F2.32
F-1.0376363883865602
F4.782006854095207
F0.1899999976158142
F0.5459999721497297
tp732
a(F1.99
F-1.0427187098095063
F4.429711557382711
F0.1599999964237213
F0.17500000074505806
tp733
a(F2.26
F-1.1779800602341242
F4.782211801040261
F0.17000000178813934
F0.38199999555945396
tp734
a(F2.2
F-1.2940574536571388
F4.782969900564759
F0.23899999633431435
F0.46300000697374344
tp735
a(F2.08
F-1.5546205631325178
F4.764992500553108
F0.16299999505281448
F0.4989999867975712
tp736
a(F2.02
F-1.6682307061524526
F4.754469842291499
F0.2259999942034483
F0.5459999721497297
tp737
a(F1.94
F-1.813422464648779
F4.7345378175613675
F0.17000000178813934
F0.3400000035762787
tp738
a(F1.74
F-2.167920217476614
F4.646622562289527
F0.17000000178813934
F0.35499998927116394
tp739
a(F1.59
F-2.410213085937575
F4.5672617968339875
F0.20999999344348907
F0.20500000193715096
tp740
a(F2.63
F0.8785829510153818
F5.212275994112782
F0.20599999837577343
F0.22499999776482582
tp741
a(F1.41
F-1.4523262581175265
F4.229553222522437
F0.15600000135600567
F0.17000000178813934
tp742
a(F2.42
F-0.1075883795577034
F4.697745093126543
F0.21900000236928463
F0.40499998815357685
tp743
a(F2.71
F-0.19833519606845174
F5.01674238465175
F0.2199999988079071
F0.8419999778270721
tp744
a(F2.12
F-0.748942725086229
F4.622027424768195
F0.1720000021159649
F0.480999993160367
tp745
a(F2.42
F-0.8212680529364126
F4.974598981428086
F0.3249999899417162
F0.5319999903440475
tp746
a(F2.1
F-1.4231782031480718
F4.897611806891691
F0.18600000254809856
F0.36699999682605267
tp747
a(F1.42
F-2.4992744378429976
F4.610026883221667
F0.22199999913573265
F0.25799999572336674
tp748
a(F2.78
F-0.2573729920985207
F5.044038622714123
F0.2559999991208315
F0.43799998983740807
tp749
a(F2.42
F-0.28129693855168225
F4.711140233189601
F0.18600000254809856
F0.26099999994039536
tp750
a(F2.71
F-0.368563049673165
F5.0418554019936845
F0.31900000013411045
F0.36699999682605267
tp751
a(F2.33
F-0.4283210475144319
F4.706506905853959
F0.17599999718368053
F0.2449999935925007
tp752
a(F2.65
F-0.4799747356840234
F5.039092243596539
F0.38699999265372753
F0.4690000005066395
tp753
a(F2.26
F-0.5388689209688053
F4.693175654755367
F0.22499999590218067
F0.3259999956935644
tp754
a(F2.56
F-0.6166427601540281
F5.03191624916685
F0.4000000115483999
F0.39699999801814556
tp755
a(F2.19
F-0.6569250345104183
F4.6713630692998604
F0.18900000117719173
F0.34299999475479126
tp756
a(F2.49
F-0.7276626799451157
F5.028040073258328
F0.3039999958127737
F0.4799999948590994
tp757
a(F2.09
F-0.8006752418088159
F4.644683672395648
F0.19099999964237213
F0.4349999986588955
tp758
a(F2.4
F-0.872206384373988
F5.01125824265232
F0.37099999375641346
F0.4339999947696924
tp759
a(F2.32
F-0.9837792171175722
F5.00594820195251
F0.3059999980032444
F0.5289999954402447
tp760
a(F2.23
F-1.1166791705982215
F4.975898821014804
F0.2409999966621399
F0.27699999511241913
tp761
a(F2.15
F-1.2271635619570422
F4.959287878588346
F0.16200000047683716
F0.3409999907016754
tp762
a(F1.74
F-1.3128452240079393
F4.506315570959056
F0.1599999964237213
F0.19499999471008778
tp763
a(F2.08
F-1.33545193286482
F4.932221396955096
F0.3069999944418669
F0.44699999690055847
tp764
a(F2.45
F0.4753554702905015
F5.091249018942388
F0.1589999981224537
F0.22499999590218067
tp765
a(F1.26
F-1.3711837998538727
F4.278242698567194
F0.1599999964237213
F0.3009999990463257
tp766
a(F0.77
F-1.6219787487421586
F3.583155922817144
F0.16199999675154686
F0.20899999514222145
tp767
a(F2.85
F-0.3595973187295014
F5.154607515168548
F0.17000000178813934
F0.4869999997317791
tp768
a(F2.5
F-0.8965248252133449
F5.106212381305993
F0.3539999946951866
F0.3650000039488077
tp769
a(F1.57
F-2.0734720952144645
F4.823419163689896
F0.1899999976158142
F0.2739999946206808
tp770
a(F1.47
F-2.1754459911604354
F4.7735919376754445
F0.23799999989569187
F0.25999999418854713
tp771
a(F1.35
F-2.314923101245043
F4.720991030672935
F0.2409999966621399
F0.29499999433755875
tp772
a(F1.25
F-2.415726768550277
F4.671631414032267
F0.1789999958127737
F0.24499999731779099
tp773
a(F1.15
F-2.5146249065776543
F4.612667838632852
F0.22499999776482582
F0.2439999971538782
tp774
a(F0.92
F-2.7389414787229063
F4.490641476997753
F0.21099999733269215
F0.15800000168383121
tp775
a(F0.78
F-2.861511165164672
F4.408150284776853
F0.19199999794363976
F0.16299999877810478
tp776
a(F3.03
F0.029800502897524006
F5.255343063298139
F0.19599999859929085
F0.36499999836087227
tp777
a(F2.73
F-0.3242328597595522
F5.2064689164317075
F0.2110000029206276
F0.24499999545514584
tp778
a(F3.02
F1.3029512573927011
F5.299986879248858
F0.2559999953955412
F0.37299999222159386
tp779
a(F2.61
F0.8209431243183942
F5.079130093886657
F0.2689999993890524
F0.46399999782443047
tp780
a(F2.2
F0.3537762439154044
F4.819077911641178
F0.15899999998509884
F0.5820000022649765
tp781
a(F1.74
F-0.1466689092077712
F4.50090595500937
F0.23599999956786633
F0.3549999911338091
tp782
a(F1.26
F-0.6575563855044272
F4.112860826287598
F0.17000000178813934
F0.3679999951273203
tp783
a(F2.69
F0.5643355742214865
F5.168580370006726
F0.43099999241530895
F1.0019999723881483
tp784
a(F2.24
F-0.01523085993151485
F4.959108454385712
F0.2860000114887953
F0.6499999947845936
tp785
a(F1.79
F-0.5640609189292172
F4.734734596941003
F0.27599999122321606
F0.46899998746812344
tp786
a(F1.3
F-1.132058349249269
F4.453199723661012
F0.37300000339746475
F0.6829999797046185
tp787
a(F0.79
F-1.6812315071615966
F4.116613787080267
F0.3199999928474426
F0.6429999731481075
tp788
a(F2.71
F-0.3415217383457232
F4.991361204386348
F0.28699999675154686
F0.480999993160367
tp789
a(F2.03
F-1.0656680674309102
F4.813383759838659
F0.17799999751150608
F0.38099999725818634
tp790
a(F1.89
F-1.19248197012364
F4.7575426048255345
F0.20799999870359898
F0.4499999936670065
tp791
a(F2.87
F0.2857944777736676
F5.072659255935729
F0.22199999913573265
F0.4229999892413616
tp792
a(F2.76
F0.18956592932644795
F5.0507929822303
F0.18900000117719173
F0.46899998746812344
tp793
a(F2.53
F-0.019858765088112684
F4.9643706929996885
F0.20200000330805779
F0.3199999984353781
tp794
a(F2.42
F-0.10680167837134422
F4.930685610684127
F0.2860000114887953
F0.3569999895989895
tp795
a(F2.28
F-0.2302342606638193
F4.874670537515562
F0.1720000021159649
F0.22799999453127384
tp796
a(F2.17
F-0.3182589437093667
F4.819607216456642
F0.15899999998509884
F0.19299999624490738
tp797
a(F2.03
F-0.43232095292002154
F4.762109158637195
F0.22299999743700027
F0.2569999974220991
tp798
a(F1.92
F-0.5300519523619949
F4.705113621628726
F0.1599999964237213
F0.16299999691545963
tp799
a(F2.68
F0.9874673555520378
F4.934917420454974
F0.20799999870359898
F0.2220000009983778
tp800
a(F2.21
F0.5764553431412507
F4.678052210835593
F0.2709999978542328
F0.35399999283254147
tp801
a(F1.69
F0.13424459011718826
F4.3600684648912
F0.27799999341368675
F0.37199999392032623
tp802
a(F1.2
F-0.07044654452913157
F3.8333351293003015
F0.1720000021159649
F0.24399999901652336
tp803
a(F1.14
F-0.33077742821108624
F3.9853628403722987
F0.2350000012665987
F0.6179999839514494
tp804
a(F2.72
F0.6984713147793616
F4.928216151936254
F0.1599999964237213
F0.4519999884068966
tp805
a(F2.75
F0.3694233377732573
F5.129216458711379
F0.23999999463558197
F0.5329999886453152
tp806
a(F2.2
F0.1741435083782411
F4.716410929340036
F0.1599999964237213
F0.2759999930858612
tp807
a(F2.27
F-0.11176867811175795
F4.9606493942705026
F0.17599999718368053
F0.27599999122321606
tp808
a(F1.73
F-0.62442500755539
F4.741425228710496
F0.20999999344348907
F0.3089999910444021
tp809
a(F1.17
F-1.1200003515329542
F4.485970318682138
F0.1599999964237213
F0.21900000236928463
tp810
a(F2.79
F1.314531333856768
F4.6231040945619855
F0.15600000135600567
F0.25399999879300594
tp811
a(F2.42
F0.8570224116682451
F4.585309117568527
F0.1599999964237213
F0.35699999146163464
tp812
a(F1.63
F0.5163278577973582
F4.0282385144585175
F0.17000000178813934
F0.3229999914765358
tp813
a(F1.91
F0.6181927813535018
F4.18425053817514
F0.1599999964237213
F0.3560000043362379
tp814
a(F1.35
F0.3388117068780907
F3.9586468931001546
F0.1599999964237213
F0.4549999851733446
tp815
a(F0.75
F0.03433685881401427
F3.6922775171897912
F0.17599999718368053
F0.17599999718368053
tp816
a(F0.11
F-0.29620086812850555
F3.36123268317529
F0.17000000178813934
F0.1720000021159649
tp817
a(F2.39
F-0.4233737074216304
F5.013159305705822
F0.15600000135600567
F0.3510000128298998
tp818
a(F1.79
F-0.4699890164448425
F4.613205918562648
F0.15600000135600567
F0.161999998614192
tp819
a(F-2.56
F-0.7745793228637541
F-6.77934052238769
F0.1749999988824129
F0.2070000022649765
tp820
a(F-1.78
F-0.5951690126368052
F-7.108988265412631
F0.1789999958127737
F0.25399999879300594
tp821
a(F1.54
F0.2420718635139243
F4.069674090987691
F0.21200000122189522
F0.286999998614192
tp822
a(F1.8
F0.19240756071656828
F4.34151133120384
F0.19100000150501728
F0.178999999538064
tp823
a(F-0.75
F-0.45217344583263763
F3.042119113179301
F0.1599999964237213
F0.4160000067204237
tp824
a(F2.66
F1.0706246296958621
F4.130315863023936
F0.4199999924749136
F1.0649999734014273
tp825
a(F2.43
F0.8304695743619201
F4.201372469141591
F0.7300000265240669
F1.5500000454485416
tp826
a(F2.01
F0.8135951345047023
F3.9375091454664704
F0.4369999933987856
F1.1669999808073044
tp827
a(F1.83
F0.6096441180743106
F4.05245696730353
F0.401999993249774
F1.0409999694675207
tp828
a(F1.39
F0.5691272069391573
F3.732975810402027
F0.22499999776482582
F0.6319999862462282
tp829
a(F1.18
F0.3567788394121165
F3.8552977255322682
F0.25200000032782555
F0.39900001138448715
tp830
a(F0.53
F0.1068748614343158
F3.6294791296792726
F0.17599999718368053
F0.3179999999701977
tp831
a(F-0.77
F-0.3889345288160011
F3.075036839791336
F0.1589999981224537
F0.2510000020265579
tp832
a(F2.54
F-0.35352835569998553
F4.7947831239233905
F0.1720000021159649
F0.3259999919682741
tp833
a(F2.45
F-0.6434689812943508
F5.001851311434592
F0.2389999981969595
F0.49699999392032623
tp834
a(F1.93
F-0.5775739586202923
F4.668373438686534
F0.23999999463558197
F0.3330000005662441
tp835
a(F1.85
F-0.8555478814831128
F4.890041354272469
F0.3510000128298998
F0.6499999817460775
tp836
a(F1.26
F-0.8010304221439865
F4.476420043186597
F0.17999999783933163
F0.43799998983740807
tp837
a(F1.2
F-1.061538262736291
F4.741789732454852
F0.19499999471008778
F0.43300001323223114
tp838
a(F0.54
F-1.2507610848945996
F4.536974154279615
F0.20200000330805779
F0.36800001189112663
tp839
a(F2.54
F0.5224033101043091
F4.247580102975623
F0.20499999821186066
F0.35100001096725464
tp840
a(F-0.04
F0.20075125876244782
F3.3607438065850657
F0.16299999505281448
F0.3079999927431345
tp841
a(F-0.67
F0.09853471234546718
F3.0687124581744607
F0.24199999496340752
F0.2409999966621399
tp842
a(F1.34
F0.6170222059788677
F3.208047966915967
F0.30199999921023846
F0.4379999879747629
tp843
a(F0.74
F0.7338351190469075
F3.2291708057751696
F0.24199999682605267
F0.3810000140219927
tp844
a(F0.14
F0.8315404181482111
F3.2270240978946747
F0.2259999942034483
F0.5309999939054251
tp845
a(F-0.43
F0.9214325393453449
F3.2043846871896724
F0.20599999837577343
F0.35499998927116394
tp846
a(F-1.1
F1.0061784363387785
F3.1437917061135336
F0.1749999988824129
F0.2849999964237213
tp847
a(F-1.43
F1.0375433013194804
F2.836527005187367
F0.17899999767541885
F0.32299999333918095
tp848
a(F0.73
F0.5488847790282203
F3.1529013451752954
F0.17599999718368053
F0.18900000117719173
tp849
a(F0.39
F-0.8311437991189188
F4.327404989137449
F0.17599999718368053
F0.24099999852478504
tp850
a(F1.7
F-0.22738959220844457
F-7.447023947915513
F0.17400000244379044
F0.3489999994635582
tp851
a(F2.39
F-0.7942428387155038
F-7.712821562768098
F0.22499999590218067
F0.44000000320374966
tp852
a(F3.06
F-1.3670228336065207
F-7.9274186472939565
F0.1940000019967556
F0.4189999904483557
tp853
a(F-0.36
F-0.7650745694388741
F-4.5266962023481545
F0.19199999794363976
F0.4199999924749136
tp854
a(F0.7
F-1.4876496817972553
F-5.271867044271978
F0.19499999657273293
F0.28699999675154686
tp855
a(F5.08
F-0.7387107545957718
F-10.133923817055683
F0.20799999870359898
F0.21099999733269215
tp856
a(F6.54
F-1.084326461913782
F-10.954372410022906
F0.2599999960511923
F0.2429999988526106
tp857
a(F0.56
F0.24321801393470288
F3.195457553966171
F0.27599999122321606
F0.3219999950379133
tp858
a(F-0.19
F0.08324400107989982
F3.5434728531396225
F0.22199999913573265
F0.33500001206994057
tp859
a(F2.96
F-2.107105856730735
F-7.278946821040513
F0.1789999958127737
F0.2709999978542328
tp860
a(F3.28
F-2.479270926721912
F-7.480236994864178
F0.23500000312924385
F0.5000000055879354
tp861
a(F3.87
F-3.165438870082617
F-7.856724498511987
F0.22199999913573265
F0.20400000363588333
tp862
a(F0.83
F0.6586281137155781
F-5.096207317139075
F0.18899999931454659
F0.4970000069588423
tp863
a(F1.15
F0.2513474196237584
F-5.401268455984737
F0.22100000083446503
F0.536999985575676
tp864
a(F1.45
F-0.14966142919214942
F-5.689594211530102
F0.3909999895840883
F1.1979999747127295
tp865
a(F1.76
F-0.5666911628450904
F-5.980568810965362
F0.3409999907016754
F1.256999971345067
tp866
a(F2.06
F-0.9884059430469634
F-6.256923411115809
F0.5489999856799841
F1.3239999786019325
tp867
a(F2.35
F-1.3740792742866108
F-6.516076047854134
F0.3689999934285879
F0.6149999834597111
tp868
a(F2.65
F-1.7864782442047202
F-6.77924970262627
F0.23500000312924385
F0.3839999958872795
tp869
a(F2.1
F-1.3234894804938624
F-5.950470584610981
F0.1880000028759241
F0.17800000309944153
tp870
a(F2.38
F-1.5613678622080904
F-6.347147291250235
F0.21099999360740185
F0.2929999977350235
tp871
a(F2.67
F-1.7940713262870132
F-6.755856139023094
F0.227999996393919
F0.26099999621510506
tp872
a(F3.51
F-2.415520308243688
F-7.899563927324501
F0.2850000001490116
F0.24199999682605267
tp873
a(F-2.05
F2.1594440584113745
F3.7767379048486176
F107.0489999987185
F0.17599999718368053
tp874
a(F2.98
F0.1328321467829281
F-8.376231368847087
F0.17599999718368053
F0.6339999809861183
tp875
a(F3.25
F-0.28463726987377136
F-8.627222726436976
F0.1899999976158142
F0.5309999864548445
tp876
a(F3.49
F-0.6814524881088382
F-8.8564527429967
F0.17000000178813934
F0.40200000628829
tp877
a(F4.47
F-5.328749008126855
F-9.23687887569967
F0.15600000135600567
F0.2609999943524599
tp878
a(F4.6
F-4.204016710497075
F-10.139215978794798
F0.15600000135600567
F0.15899999998509884
tp879
a(F-2.18
F0.993962163522983
F5.056533427787369
F0.17500000074505806
F0.2089999970048666
tp880
a(F2.33
F0.11185387663761759
F-5.121272428893516
F0.2089999970048666
F0.5619999896734953
tp881
a(F2.54
F-0.3485140702699603
F-5.5469607105124155
F0.15800000168383121
F0.3389999959617853
tp882
a(F2.74
F-0.7700346966350806
F-5.945216651130354
F0.2520000021904707
F0.6150000039488077
tp883
a(F2.94
F-1.2127599208871707
F-6.362100251882239
F0.16199999675154686
F0.2700000014156103
tp884
a(F3.66
F-2.8158142648352467
F-7.894849288554698
F0.17599999718368053
F0.39699999801814556
tp885
a(F3.83
F-3.1929823676230358
F-8.268435206004035
F0.1880000028759241
F0.3249999899417162
tp886
a(F-2.15
F1.1987664609597934
F4.779580841200484
F0.24199999496340752
F0.52700000628829
tp887
a(F-1.83
F0.4835858978949694
F4.404665498607719
F0.19299999624490738
F0.22199999913573265
tp888
a(F-2.17
F2.273082099467126
F4.798562475185603
F0.1749999988824129
F0.4629999939352274
tp889
a(F-1.91
F1.5684071684063083
F4.469838599543462
F0.1789999958127737
F0.25999999418854713
tp890
a(F3.18
F1.1444908466709454
F-6.793519119310462
F0.17599999718368053
F0.18600000254809856
tp891
a(F2.96
F0.02073332052826471
F-5.694368426162695
F0.333000011742115
F0.7589999809861183
tp892
a(F3.04
F-0.42830085258254114
F-6.215688864570295
F0.23500000312924385
F0.44600001350045204
tp893
a(F3.57
F0.14284907118995416
F-6.410663629442135
F0.22199999913573265
F0.7249999810010195
tp894
a(F3.63
F-0.17760238363864844
F-6.805019164167534
F0.15600000135600567
F0.7130000256001949
tp895
a(F3.69
F-0.552373545343906
F-7.266464005293214
F0.1899999976158142
F0.3049999922513962
tp896
a(F3.74
F-0.9211243894384988
F-7.709772036036872
F0.15600000135600567
F0.25200000032782555
tp897
a(F3.77
F-1.15343951523402
F-10.179764476297423
F0.16299999877810478
F0.20500000193715096
tp898
a(F3.77
F1.944755139378587
F-7.90065165706037
F0.2389999981969595
F1.051000015810132
tp899
a(F3.79
F1.5472556125500863
F-8.205764885119391
F0.31799999810755253
F0.7319999802857637
tp900
a(F3.81
F1.1567684035940435
F-8.488400270272622
F0.20500000193715096
F0.7329999897629023
tp901
a(F3.14
F0.48014263404833324
F-6.333825709314002
F0.22199999913573265
F0.45599998719990253
tp902
a(F3.19
F-0.5518600068686776
F-7.155061065401875
F0.15600000135600567
F0.37299999222159386
tp903
a(F3.79
F0.2223396730978573
F-7.126836986994668
F0.38800000585615635
F1.2420000117272139
tp904
a(F3.81
F-0.2815995282304986
F-7.513604337207138
F0.3009999990463257
F0.9850000217556953
tp905
a(F-2.3
F0.8713399963686689
F5.621693875176618
F0.15800000168383121
F0.323999997228384
tp906
a(F3.35
F0.3646831188662395
F-6.2448724329507455
F0.35199999436736107
F0.678999999538064
tp907
a(F3.33
F-0.13187776451858424
F-6.6882488098851605
F0.25299999862909317
F0.5019999872893095
tp908
a(F-3.36
F-0.6452789142283563
F5.993721576164592
F0.25200000032782555
F0.5300000049173832
tp909
a(F-3.01
F-0.07164405368983057
F5.92005664843826
F0.25899999402463436
F0.5500000044703484
tp910
a(F4.02
F1.3095526168786975
F-7.683585658384428
F0.17599999718368053
F0.2719999961555004
tp911
a(F3.66
F-0.3854672828588972
F-8.843160108292924
F0.17599999718368053
F0.3219999950379133
tp912
a(F-2.19
F1.2297557308742757
F5.717720487203987
F0.15899999998509884
F0.5820000022649765
tp913
a(F-2.46
F-0.7208443992388373
F5.348837236935415
F213.0489999987185
F0.2889999933540821
tp914
a(F4.03
F-0.7396787842185123
F-7.512414724398892
F0.15600000135600567
F0.3569999895989895
tp915
a(F3.93
F-0.10144282281523131
F-7.171487173114206
F0.27000001072883606
F0.6760000139474869
tp916
a(F3.86
F1.0805785893122393
F-6.436761301271547
F0.22499999590218067
F0.4210000019520521
tp917
a(F3.71
F-0.6446129271773247
F-6.945714912705493
F0.19199999794363976
F0.2919999938458204
tp918
a(F0.72
F1.1176797505682847
F-7.107841494463438
F0.15600000135600567
F0.19099999964237213
tp919
a(F1.3
F-0.9255117991789077
F3.4098579813427587
F0.15600000135600567
F0.16200000047683716
tp920
a(F1.88
F-0.9160854296531771
F3.1899618269338843
F0.15600000135600567
F0.1620000023394823
tp921
a(F-0.62
F-0.9601014194084425
F3.751550630054041
F0.22199999913573265
F0.3089999910444021
tp922
a(F-0.08
F-1.0567089820415565
F3.700279696765974
F0.1599999964237213
F0.27599999122321606
tp923
a(F0.5
F-1.1503029563752927
F3.6372895024869223
F0.1899999976158142
F0.2259999942034483
tp924
a(F1.04
F-1.2138550570610929
F3.5478204945050233
F0.23599999956786633
F0.3079999927431345
tp925
a(F1.61
F-1.2711170756330539
F3.4362658213757786
F0.20999999344348907
F0.23599999956786633
tp926
a(F0.03
F-1.1090362728602599
F3.6629844460921084
F0.16199999675154686
F0.19499999657273293
tp927
a(F1.25
F0.33909073945282686
F5.1904915457658864
F0.20799999870359898
F0.34199999645352364
tp928
a(F0.19
F-0.055015921033585435
F3.9057930575187623
F0.1789999958127737
F0.2430000025779009
tp929
a(F0.9
F-0.5942903556636421
F4.265480750249946
F0.21900000236928463
F0.24499999731779099
tp930
a(F1.59
F-1.1441790985720985
F4.517551954763338
F0.19499999657273293
F0.19599999859929085
tp931
a(F2.26
F-1.6931202854942082
F4.617015309616097
F0.16199999675154686
F0.3869999945163727
tp932
a(F1.83
F-1.741811631178394
F4.376644214737114
F0.1730000004172325
F0.45099999010562897
tp933
a(F2.11
F-2.099199308773012
F4.435187040713364
F0.2089999970048666
F0.33399999886751175
tp934
a(F2.37
F-2.445222449048965
F4.4764336514869445
F0.1789999958127737
F0.4199999924749136
tp935
a(F2.6
F-2.734803002868964
F4.476599055941821
F0.18600000254809856
F0.34099999256432056
tp936
a(F1.42
F2.21932018933636
F5.986225485386802
F0.16200000047683716
F0.17999999783933163
tp937
a(F1.84
F1.0468869827126135
F5.943111921351969
F0.1899999976158142
F0.15800000168383121
tp938
a(F2.01
F0.5075703132661851
F5.855401158025485
F0.15600000135600567
F0.25200000032782555
tp939
a(F2.25
F-2.1870829649334924
F5.057268221426627
F0.3349999953061342
F0.21200000122189522
tp940
a(F2.28
F-2.2759769445794125
F5.072880445091745
F0.27599999494850636
F0.40299999341368675
tp941
a(F1.58
F-0.6463091131641052
F4.5468008396799044
F0.16200000047683716
F0.17899999767541885
tp942
a(F2.3
F-2.3687443600350275
F5.0840900425593265
F0.25400000251829624
F0.3379999976605177
tp943
a(F2.32
F-2.474478438252749
F5.0951527394774105
F0.2759999968111515
F0.24000000022351742
tp944
a(F2.34
F-2.558852656929164
F5.101171782043331
F0.27299999445676804
F0.28400000371038914
tp945
a(F2.36
F-2.668202010534539
F5.1074388003657685
F0.2439999934285879
F0.36999999545514584
tp946
a(F2.38
F-2.7523794717901646
F5.112961740940198
F0.2670000046491623
F0.4149999972432852
tp947
a(F2.39
F-2.833333657007489
F5.108739354207792
F0.3389999959617853
F0.4179999940097332
tp948
a(F2.41
F-2.9298311047961665
F5.100264074682221
F0.3030000012367964
F0.3889999948441982
tp949
a(F2.42
F-3.0197390046933394
F5.099726761263145
F0.23900000378489494
F0.47199998795986176
tp950
a(F1.94
F1.3143356163051478
F5.431966448919179
F0.2370000034570694
F0.5600000098347664
tp951
a(F2.02
F0.7244793481689238
F5.458785375833465
F0.21199999749660492
F0.2570000011473894
tp952
a(F2.17
F-0.5059308849560817
F5.486799058934685
F0.20599999837577343
F0.3059999942779541
tp953
a(F2.22
F-1.056709402820017
F5.4705341676232795
F0.1880000028759241
F0.1919999998062849
tp954
a(F2.3
F-2.6655118848021693
F5.343315686701803
F0.1730000004172325
F0.303999999538064
tp955
a(F1.74
F-2.6909212057396714
F5.136971707274612
F0.19499999657273293
F0.28800000064074993
tp956
a(F2.95
F0.6015722556667684
F5.806794066992724
F0.1720000021159649
F0.1919999998062849
tp957
a(F2.87
F0.2754497364772548
F5.8852785518521085
F0.17500000074505806
F0.178999999538064
tp958
a(F2.84
F0.14560380992083544
F5.915616502711634
F0.16299999505281448
F0.24499999545514584
tp959
a(F2.75
F-0.17872951301772888
F5.977111177539851
F0.2030000016093254
F0.17900000140070915
tp960
a(F2.72
F-0.27202618711715076
F5.983363958138986
F0.15600000135600567
F0.227999996393919
tp961
a(F2.59
F-0.7278946726564212
F6.0249488404590235
F0.20200000330805779
F0.23799999989569187
tp962
a(F3.13
F2.404906656507672
F6.705694634731019
F0.40200000628829
F0.959999967366457
tp963
a(F2.99
F1.8248202830189175
F6.611710546685863
F0.25299999862909317
F0.5160000026226044
tp964
a(F2.82
F1.1960011285365506
F6.495604087114883
F0.18600000254809856
F0.41700001060962677
tp965
a(F1.16
F-2.9587349023880387
F4.837234265631977
F0.17799999751150608
F0.210999995470047
tp966
a(F3.22
F0.6747554078410058
F6.274490162552766
F0.2689999993890524
F0.6279999688267708
tp967
a(F3.02
F0.24178265028131551
F6.301109186561718
F0.7790000177919865
F1.2949999794363976
tp968
a(F2.82
F-0.17487910486011704
F6.301371359386189
F0.5460000056773424
F1.0949999578297138
tp969
a(F3.14
F1.787562546657805
F6.5025155049094066
F0.17500000074505806
F0.5619999896734953
tp970
a(F2.84
F1.3333543461827824
F6.306521710231609
F0.25999999046325684
F0.4660000056028366
tp971
a(F2.51
F0.8467657034940851
F6.066182956487549
F0.17000000178813934
F0.19299999624490738
tp972
a(F1.45
F-0.6539326512361827
F5.152106805813711
F0.18600000254809856
F0.17500000074505806
tp973
a(F3.45
F1.2478955817778474
F6.666835977251873
F0.15600000135600567
F0.1880000028759241
tp974
a(F3.13
F0.672379270753064
F6.543367850145669
F0.17599999718368053
F0.21099999733269215
tp975
a(F3.77
F1.1188149116011896
F6.698627671146437
F0.514000004157424
F1.196000000461936
tp976
a(F3.39
F0.6026054310379008
F6.596066926840561
F0.468000004068017
F0.9279999807476997
tp977
a(F3.01
F0.11262761420437029
F6.484925728544888
F0.2689999993890524
F0.4460000116378069
tp978
a(F2.6
F-0.3907682813923128
F6.3534568370986735
F0.25699999928474426
F0.4879999849945307
tp979
a(F3.0
F1.4788446179879737
F5.965133474785255
F0.35199999436736107
F0.43899999000132084
tp980
a(F2.55
F1.0762813693851565
F5.7527434887960665
F0.17599999904632568
F0.3249999936670065
tp981
a(F3.11
F1.4531580260660526
F5.803423670820714
F0.2850000001490116
F0.8219999819993973
tp982
a(F2.64
F1.1277351646404752
F5.6522747526425565
F0.332999998703599
F0.5019999891519547
tp983
a(F2.13
F0.7660740873697731
F5.458875517653164
F0.18899999931454659
F0.28899999894201756
tp984
a(F1.61
F0.39140091721063164
F5.2539650074990165
F0.20999999344348907
F0.286999998614192
tp985
a(F1.11
F0.031881576421363356
F5.025389311031192
F0.17800000123679638
F0.37299999222159386
tp986
a(F0.57
F-0.34690855955155375
F4.767352765100068
F0.17400000244379044
F0.2899999972432852
tp987
a(F0.03
F-0.720670325210832
F4.483880813585278
F0.19299999624490738
F0.20999999344348907
tp988
a(F-0.49
F-1.0684863982981894
F4.18225867402193
F0.17799999751150608
F0.2259999942034483
tp989
a(F2.72
F0.7207454412157355
F5.454745847512102
F0.1899999976158142
F0.2220000009983778
tp990
a(F-2.69
F1.5898798929384867
F4.697876283339066
F0.17000000178813934
F0.22699999623000622
tp991
a(F1.78
F0.4229550733353098
F-5.159890387870211
F0.2579999975860119
F0.25600000098347664
tp992
a(F2.0
F0.07229035011605855
F-5.645372221683548
F0.20799999870359898
F0.3670000024139881
tp993
a(F2.41
F-0.5843367439445877
F-6.550201322172813
F0.25499999709427357
F0.33100000210106373
tp994
a(F2.15
F2.9429043716240226
F-7.248319897744192
F0.18600000254809856
F0.17599999904632568
tp995
a(F2.33
F2.5664292783399647
F-7.565293663836824
F0.17899999395012856
F0.210999995470047
tp996
a(F2.52
F2.15137368621803
F-7.891353978631181
F0.16299999691545963
F0.30399999767541885
tp997
a(F2.7
F1.7158434085963254
F-8.19952976066464
F0.17000000178813934
F0.28499999828636646
tp998
a(F2.87
F1.2869636062916843
F-8.470067640060961
F0.1720000021159649
F0.27499999292194843
tp999
a(F3.04
F0.8208976047666849
F-8.753682619069258
F0.23599999956786633
F0.2899999935179949
tp1000
a(F3.65
F-1.1047386481821175
F-9.70526561845299
F0.15600000135600567
F0.210999995470047
tp1001
a(F2.31
F0.7183041681193356
F-5.975399727969427
F0.2259999942034483
F0.5309999901801348
tp1002
a(F3.14
F-1.722473346847101
F-7.728637400421611
F0.17000000178813934
F0.32399999536573887
tp1003
a(F3.7
F-3.460672023947456
F-8.989299599887802
F0.1899999976158142
F0.4859999995678663
tp1004
a(F3.44
F-2.503219138021409
F-10.079011426975354
F0.3700000047683716
F4.959000188857317
tp1005
a(F3.57
F-3.3595350507502584
F-10.493470156224666
F0.20999999344348907
F22.032999999821186
tp1006
a(F-2.74
F0.4904337997326005
F6.062812033097747
F0.1720000021159649
F0.22199999913573265
tp1007
a(F3.68
F-1.387343219487689
F-10.399175598863517
F0.19099999964237213
F0.17999999597668648
tp1008
a(F3.57
F-3.1210942778479565
F-11.107593450335495
F0.17899999395012856
F0.16299999877810478
tp1009
a(F3.61
F1.8173569294797303
F-9.02315096229578
F0.17800000309944153
F0.2939999960362911
tp1010
a(F3.52
F2.165572488803052
F-7.465268029731468
F0.1599999964237213
F0.286999998614192
tp1011
a(F3.6
F1.1715178741959127
F-8.104698559758427
F0.1730000004172325
F0.28899999521672726
tp1012
a(F3.71
F1.6562931122865825
F-7.744829404352681
F0.2879999987781048
F0.30799999833106995
tp1013
a(F3.71
F1.4106470693628899
F-8.100673156955802
F0.3019999973475933
F0.7749999798834324
tp1014
a(F3.72
F1.157261478546452
F-8.44747753646891
F0.2089999970048666
F0.6129999998956919
tp1015
a(F3.71
F0.9144013696698715
F-8.742450860471745
F0.24199999496340752
F0.3519999962300062
tp1016
a(F3.36
F-1.2636524581888913
F-10.360542261200104
F0.2540000006556511
F0.21199999935925007
tp1017
a(F3.16
F-2.0188898419975567
F-10.54919212399378
F0.17799999751150608
F0.17799999751150608
tp1018
a(F3.83
F1.0300048159926614
F-7.956534540113684
F0.17599999718368053
F0.2909999955445528
tp1019
a(F3.61
F0.6824885929941399
F-9.278694055520688
F0.178999999538064
F0.21199999935925007
tp1020
a(F3.93
F0.05957519385719512
F-8.343841593388388
F0.2919999919831753
F0.19500000029802322
tp1021
a(F-0.68
F0.7713423376621884
F4.895362808788792
F0.23599999956786633
F0.5359999854117632
tp1022
a(F-3.38
F-2.3524047668287245
F6.843710358442901
F0.1789999958127737
F0.2439999971538782
tp1023
a(F4.28
F0.7400000095367432
F-7.559999942779541
F0.27099999971687794
F0.6779999826103449
tp1024
a(F3.62
F0.6344763511774054
F-6.648128573611054
F0.4009999930858612
F0.7099999822676182
tp1025
a(F3.51
F0.22004897119699782
F-7.021568027519677
F0.6139999888837337
F1.1899999976158142
tp1026
a(F3.77
F-0.9342984020107973
F-8.836477868176862
F0.4100000001490116
F0.7559999860823154
tp1027
a(F3.38
F-0.2161264048940276
F-7.400886619849123
F0.2540000006556511
F0.9259999841451645
tp1028
a(F3.23
F-0.649331496802181
F-7.755108387554271
F0.2239999994635582
F0.4349999949336052
tp1029
a(F4.26
F2.2116413041556378
F-7.472230741447023
F0.3829999938607216
F0.4879999868571758
tp1030
a(F4.1
F1.8934389076331017
F-7.737348121044249
F0.33599999360740185
F0.46200001053512096
tp1031
a(F3.93
F1.565262691086906
F-7.995736507296859
F0.23599999956786633
F0.3079999927431345
tp1032
a(F0.47
F0.26865006496532384
F4.608808931600794
F0.1620000023394823
F0.22799999453127384
tp1033
a(F4.1
F-0.484336635489619
F-7.544115573289983
F0.19599999487400055
F0.3249999936670065
tp1034
a(F2.65
F0.604035015749512
F-5.680641924154967
F0.1720000021159649
F0.3219999931752682
tp1035
a(F2.85
F-1.1947446800183896
F4.498954367560037
F0.16199999675154686
F0.2919999938458204
tp1036
a(F2.53
F-1.1107838484466872
F5.389656380460873
F0.27200000174343586
F0.4199999924749136
tp1037
a(F2.92
F-1.406245439964328
F5.196437896628253
F0.3179999962449074
F0.592999991029501
tp1038
a(F-0.03
F1.537143013463135
F5.960992557677747
F0.1899999976158142
F0.25899999402463436
tp1039
a(F2.56
F-2.0687334024541384
F5.609897028374242
F0.15600000135600567
F0.4009999930858612
tp1040
a(F0.65
F1.2445621554981643
F5.858223911695742
F0.17899999767541885
F0.1959999967366457
tp1041
a(F0.91
F0.7637125937441449
F5.868899379786897
F0.20800000056624413
F0.25699999928474426
tp1042
a(F0.11
F1.4524641244677654
F5.636434160917612
F0.1599999964237213
F0.28899999521672726
tp1043
a(F2.0
F-1.333640795016499
F5.84969115330945
F0.22499999776482582
F0.6169999986886978
tp1044
a(F2.67
F-2.5983339542782673
F5.73489406220025
F0.19499999657273293
F0.38399999774992466
tp1045
a(F2.86
F-2.955117315137219
F5.675096197098683
F0.2549999989569187
F0.34099999256432056
tp1046
a(F3.05
F-3.301433498328878
F5.58586637758535
F0.22499999776482582
F0.3000000026077032
tp1047
a(F2.82
F-3.285760816931833
F5.182545280756163
F0.17599999718368053
F0.1789999958127737
tp1048
a(F0.71
F-0.11241471314556017
F4.665995399824649
F0.1880000028759241
F0.161999998614192
tp1049
a(F0.95
F-0.4351355007325224
F4.831553912785767
F0.2089999970048666
F0.27499999292194843
tp1050
a(F1.94
F0.2838860280776281
F5.976313385059492
F0.2389999981969595
F0.3810000140219927
tp1051
a(F2.05
F-0.21913348767401564
F6.0326197018743315
F0.20599999837577343
F0.4069999922066927
tp1052
a(F2.35
F-1.7018916733321765
F6.160588229821944
F0.1599999964237213
F0.1789999958127737
tp1053
a(F2.68
F-4.107774929576971
F6.038238261858942
F0.227999996393919
F0.24499999731779099
tp1054
a(F2.55
F-1.329763666679424
F6.525603463800521
F22.0489999987185
F20.0489999987185
tp1055
a(F2.46
F-2.258441276956047
F6.685036097102752
F21.06499999947846
F21.065000001341105
tp1056
a(F3.27
F2.475200939761247
F7.660085872821815
F0.15600000135600567
F0.2089999970048666
tp1057
a(F3.18
F1.909148174978267
F7.600883763347056
F0.2719999961555004
F119.61399999819696
tp1058
a(F2.93
F0.48300473614823647
F7.423174439327488
F1.1210000105202198
F1.99099999666214
tp1059
a(F2.77
F0.9289961573485678
F7.324821783460783
F0.5339999832212925
F1.3859999794512987
tp1060
a(F2.81
F-0.09387844717640692
F7.335471561165115
F0.9879999868571758
F1.8710000067949295
tp1061
a(F2.65
F0.3184597628231025
F7.213356140016762
F0.6090000066906214
F1.0899999756366014
tp1062
a(F2.68
F-0.6988530624782283
F7.233176825222984
F0.6640000119805336
F1.4980000108480453
tp1063
a(F2.52
F-0.29284592803604426
F7.08761017643527
F0.3179999999701977
F0.9289999958127737
tp1064
a(F2.53
F-1.3035444895697799
F7.116807463861673
F0.5809999834746122
F1.3030000142753124
tp1065
a(F2.38
F-0.8808701929367202
F6.94591627361322
F0.28300000354647636
F0.659000001847744
tp1066
a(F2.38
F-1.8487417280968552
F6.989870666971836
F0.23500000312924385
F0.8229999952018261
tp1067
a(F2.24
F-1.432375434312568
F6.796347534926574
F0.17400000244379044
F0.4359999895095825
tp1068
a(F2.04
F-2.9429000260091565
F6.673372334071729
F0.20500000193715096
F0.33399999886751175
tp1069
a(F1.86
F-3.419253083938516
F6.49237874378375
F0.17599999718368053
F0.3239999935030937
tp1070
a(F3.34
F0.3814874209107475
F6.853924711949679
F0.2919999919831753
F0.5700000133365393
tp1071
a(F3.22
F-0.09251985915967875
F6.926316016285192
F0.20599999837577343
F0.2540000006556511
tp1072
a(F3.09
F-0.5621414549988795
F6.9873511285364795
F0.15600000135600567
F0.36999999172985554
tp1073
a(F3.79
F1.9306179434501949
F7.807174065046017
F0.16299999877810478
F0.2899999972432852
tp1074
a(F3.6
F1.5982465693325405
F7.775917117404525
F0.18900000117719173
F0.5119999945163727
tp1075
a(F3.53
F2.1002190783454293
F7.774328457673628
F0.19099999964237213
F0.4490000009536743
tp1076
a(F3.38
F1.2390250861772205
F7.701691455634526
F0.22299999743700027
F0.4969999957829714
tp1077
a(F3.15
F0.8744803544326657
F7.593816605048836
F0.31700000166893005
F0.2700000014156103
tp1078
a(F3.09
F1.371866772253821
F7.571622130996613
F0.16299999505281448
F0.22699999623000622
tp1079
a(F2.92
F0.5195551987984837
F7.464632704862296
F0.15600000135600567
F0.2579999975860119
tp1080
a(F4.0
F3.4656171594377243
F8.040336523355
F0.17599999718368053
F0.3169999998062849
tp1081
a(F3.91
F1.4519160539904974
F7.782626006914459
F0.19199999794363976
F0.5030000042170286
tp1082
a(F3.83
F1.7803805514097166
F7.747945764981475
F0.35399999655783176
F0.5479999911040068
tp1083
a(F3.67
F0.8971669371492306
F7.717789280232604
F0.2429999951273203
F0.661999985575676
tp1084
a(F3.41
F0.3473348251403409
F7.644651835822647
F0.33500001206994057
F0.7289999816566706
tp1085
a(F3.33
F0.6824881502776197
F7.563916788397248
F0.1720000021159649
F0.40299999341368675
tp1086
a(F3.16
F-0.16725151352885126
F7.56263684809217
F0.20200000330805779
F0.32299999706447124
tp1087
a(F2.88
F-0.700338350354011
F7.4714721074530175
F0.26999999955296516
F0.761999998241663
tp1088
a(F2.81
F-0.3654377383846199
F7.336080626651866
F0.19499999657273293
F0.4049999937415123
tp1089
a(F2.6
F-1.2311161962304158
F7.361495436652726
F0.22300000116229057
F0.46799999475479126
tp1090
a(F2.53
F-0.8801326183498202
F7.203040676232657
F0.17800000309944153
F0.178999999538064
tp1091
a(F2.32
F-1.7060337397305643
F7.237733162525851
F0.1789999958127737
F0.23500000312924385
tp1092
a(F1.39
F-3.0851318003943735
F6.725079830918057
F0.227999996393919
F0.21199999563395977
tp1093
a(F4.36
F1.3599991146769397
F7.8580759768547965
F0.17599999718368053
F0.5330000054091215
tp1094
a(F4.06
F0.8561052428898535
F7.809486632779319
F0.19299999624490738
F0.38999998942017555
tp1095
a(F3.76
F0.39217229684223953
F7.750587298639925
F0.17000000178813934
F0.2579999975860119
tp1096
a(F2.41
F0.8468118041888348
F6.718534022078187
F0.16199999675154686
F0.21099999360740185
tp1097
a(F4.19
F2.639092963531102
F7.564758716020159
F0.19199999794363976
F0.31899999640882015
tp1098
a(F2.19
F0.29276790491781424
F6.731297333513216
F0.19199999794363976
F0.1959999967366457
tp1099
a(F4.28
F2.423882276686825
F6.894495496145492
F0.27299999445676804
F0.43399999290704727
tp1100
a(F3.85
F2.2341159292283193
F6.737063233302856
F0.4970000069588423
F0.7689999863505363
tp1101
a(F3.43
F2.0394097184054334
F6.577921688219939
F0.27000001072883606
F0.7559999991208315
tp1102
a(F2.51
F1.5990470881260426
F6.181140304181094
F0.25299999862909317
F0.4970000106841326
tp1103
a(F2.59
F1.8532631198303953
F6.2089188298853735
F0.15600000135600567
F0.22799999453127384
tp1104
a(F4.09
F1.5862838456870578
F7.088319490123973
F0.1880000028759241
F0.4270000010728836
tp1105
a(F3.91
F-0.4139865204873653
F7.67320722001225
F0.22100000269711018
F0.416000010445714
tp1106
a(F3.48
F-0.6249035602379982
F7.607586570032196
F0.38499999791383743
F0.7030000071972609
tp1107
a(F3.72
F-0.2533488754585652
F7.62941202179763
F0.1749999988824129
F0.4719999898225069
tp1108
a(F3.01
F-0.840870351824685
F7.519600137804693
F0.2350000012665987
F0.5199999902397394
tp1109
a(F2.53
F-1.040392721712886
F7.400039897725916
F0.19100000150501728
F0.34900000132620335
tp1110
a(F2.08
F-1.2229629179558492
F7.268632080355986
F0.17000000178813934
F0.21199999749660492
tp1111
a(F4.35
F2.372452608286497
F6.426219674198128
F0.15600000135600567
F0.17500000074505806
tp1112
a(F-1.02
F0.696542542753583
F5.44956429331827
F0.21900000236928463
F0.19199999794363976
tp1113
a(F2.5
F0.6596375343542735
F-9.072894034848517
F0.20799999870359898
F0.448999997228384
tp1114
a(F1.41
F0.4478672918639899
F-4.809358688240403
F0.15600000135600567
F0.5299999937415123
tp1115
a(F1.84
F-0.5585377385169763
F-5.715344324936069
F0.16299999877810478
F0.1940000019967556
tp1116
a(F1.91
F0.29869705474508956
F-5.553005778955768
F0.1720000021159649
F0.42100000381469727
tp1117
a(F2.1
F-0.11762456305109881
F-5.979960736613291
F0.16299999505281448
F0.25100000388920307
tp1118
a(F-2.35
F-0.11732562421682857
F6.234175348568085
F0.17899999767541885
F0.22499999776482582
tp1119
a(F2.33
F3.045412273463121
F-7.883196254532578
F0.2030000016093254
F0.3369999974966049
tp1120
a(F2.9
F-0.008782986193972886
F-8.866190516876753
F0.1599999964237213
F0.22399999760091305
tp1121
a(F2.65
F2.3038703487729446
F-8.475457537590502
F0.31699999794363976
F0.47799999453127384
tp1122
a(F3.69
F-1.2573513457710797
F-10.245959869922192
F0.16299999877810478
F0.19599999487400055
tp1123
a(F2.92
F2.6005020312509073
F-7.0859023921516116
F0.20799999870359898
F0.5829999912530184
tp1124
a(F3.56
F2.9466793500665043
F-7.923700870542663
F0.23799999989569187
F0.4149999972432852
tp1125
a(F2.92
F1.664786713407757
F-7.680721587451599
F0.3199999928474426
F0.43899999000132084
tp1126
a(F3.86
F2.5550283254120814
F-7.9001473804894085
F0.20200000330805779
F0.32399999164044857
tp1127
a(F3.97
F2.226681413356547
F-6.726246412842688
F0.22799999825656414
F0.24399999901652336
tp1128
a(F3.71
F2.1758417672812853
F-6.852608340146107
F7.6489999033510685
F7.514000093564391
tp1129
a(F2.06
F1.2563031816205958
F-5.7649095377633595
F0.2439999934285879
F0.17799999937415123
tp1130
a(F-5.12
F2.740893368051335
F-7.7538884393291205
F0.15899999998509884
F0.1620000023394823
tp1131
a(F0.94
F-1.862212833963253
F5.136664996453386
F1.7320000492036343
F0.811999972909689
tp1132
a(F1.78
F-0.7211339491626385
F-6.2172397864269495
F0.1720000021159649
F0.22399999760091305
tp1133
a(F3.56
F-2.3672200774942396
F5.238146795397382
F0.1639999970793724
F0.36499999836087227
tp1134
a(F2.7
F-0.9350611926531545
F6.823952545966865
F0.17900000140070915
F0.2929999940097332
tp1135
a(F3.0
F-1.3035281369861755
F6.648102899522714
F0.227999996393919
F0.3049999959766865
tp1136
a(F3.29
F-1.6731965874277281
F6.462541040278589
F0.18600000254809856
F0.2739999946206808
tp1137
a(F3.55
F-1.998790558308516
F6.258383319917365
F0.2749999947845936
F0.16199999675154686
tp1138
a(F2.74
F-1.712544136423713
F6.141435728218893
F0.17500000074505806
F0.303999999538064
tp1139
a(F3.03
F-2.0500542176766707
F5.929890991353624
F0.1620000023394823
F0.30799999833106995
tp1140
a(F3.28
F-2.346632405044301
F5.705233284064771
F0.21099999733269215
F0.2939999960362911
tp1141
a(F0.78
F0.300170519997383
F-4.222470733603085
F0.3229999952018261
F0.6439999882131815
tp1142
a(F0.48
F0.6533411258895536
F-4.074900890517434
F0.1730000004172325
F0.2510000020265579
tp1143
a(F0.43
F0.572341297953348
F-4.606179418809763
F0.30000000074505806
F0.5029999893158674
tp1144
a(F0.1
F0.823267320830007
F-4.967633788966158
F0.218000004068017
F0.4179999940097332
tp1145
a(F-0.29
F1.2551525991061734
F-4.890658175394508
F0.1789999958127737
F0.26900000125169754
tp1146
a(F-0.25
F1.0803976976535088
F-5.347262655083641
F0.25299999862909317
F0.3839999958872795
tp1147
a(F-0.67
F1.545250165102893
F-5.290818204388969
F0.161999998614192
F0.27099999971687794
tp1148
a(F3.27
F-3.279286817571913
F5.828898927036694
F0.16199999675154686
F0.21199999749660492
tp1149
a(F2.2
F-2.311335288162959
F6.190101429894979
F0.16100000403821468
F0.3980000000447035
tp1150
a(F2.44
F-2.6465691516305077
F6.196993731861607
F0.24499999731779099
F0.4479999989271164
tp1151
a(F2.67
F-2.938441090359976
F6.190953393824447
F0.3209999930113554
F0.7079999912530184
tp1152
a(F2.89
F-3.2318202034462105
F6.1816878338605985
F0.27199999801814556
F0.4039999973028898
tp1153
a(F3.11
F-3.509862387461637
F6.158659696853693
F0.2909999918192625
F0.46500000543892384
tp1154
a(F1.71
F-2.1710779542561793
F5.875431027689281
F0.15899999998509884
F0.19499999843537807
tp1155
a(F3.3
F-3.741679475037849
F6.110701654033785
F0.22199999913573265
F0.3840000107884407
tp1156
a(F1.46
F2.64007456952689
F7.887172486591136
F0.1639999970793724
F0.2540000006556511
tp1157
a(F-1.15
F-0.33912846531489516
F-5.204272109929893
F0.15600000135600567
F0.4479999952018261
tp1158
a(F1.46
F2.961606528820923
F7.828040400940991
F0.2350000012665987
F0.31699999794363976
tp1159
a(F1.62
F2.4411015943267667
F7.8100694792116565
F0.21900000236928463
F0.6080000065267086
tp1160
a(F1.77
F1.9184288041007693
F7.776410044905076
F0.22499999403953552
F0.5310000069439411
tp1161
a(F1.92
F1.4119727547985572
F7.740940086383201
F0.2549999989569187
F0.4549999926239252
tp1162
a(F2.07
F0.8727766481862969
F7.6956597371948545
F0.19599999487400055
F0.4189999923110008
tp1163
a(F2.35
F-0.20826789063068718
F7.5675485868910854
F0.3069999944418669
F0.47099998593330383
tp1164
a(F2.48
F-0.7144248796718313
F7.502148976896598
F0.18600000254809856
F0.4189999923110008
tp1165
a(F2.6
F-1.2406072167718318
F7.414011192014976
F0.23600000143051147
F0.6469999998807907
tp1166
a(F2.72
F-1.762107120739476
F7.3223787357234045
F0.20599999837577343
F0.6449999827891588
tp1167
a(F2.92
F-2.709325809692076
F7.102162849214569
F0.2089999970048666
F0.28899999521672726
tp1168
a(F3.08
F-3.5794222334894275
F6.849036037834757
F0.23800000175833702
F0.7429999858140945
tp1169
a(F2.35
F0.15416720645215598
F6.604302883513573
F0.2559999953955412
F0.35499999672174454
tp1170
a(F2.42
F-0.2676018622917504
F6.724445517314331
F0.30100000090897083
F0.372999994084239
tp1171
a(F2.54
F-1.066688722783688
F6.936300349238276
F0.2919999919831753
F0.5019999891519547
tp1172
a(F2.04
F0.4913265631718926
F6.466554941418629
F0.16299999505281448
F0.2069999985396862
tp1173
a(F2.59
F-1.463895631632349
F7.032953129462436
F0.15600000135600567
F0.6079999897629023
tp1174
a(F2.64
F-1.8228627841032188
F7.1119815086470455
F0.2030000016093254
F0.39799999445676804
tp1175
a(F2.68
F-2.189429463792186
F7.17795892566012
F0.19199999794363976
F0.35699999146163464
tp1176
a(F2.71
F-2.552927542109129
F7.2291860547946385
F0.16199999675154686
F0.25899999402463436
tp1177
a(F2.73
F-2.8785761685078057
F7.24867673146161
F0.16199999675154686
F0.23700000159442425
tp1178
a(F2.53
F-1.2473646708486028
F7.5495634306744215
F0.20599999837577343
F0.3819999974220991
tp1179
a(F2.3
F-2.347923844834494
F7.087515463438008
F0.16299999877810478
F0.4819999933242798
tp1180
a(F2.18
F-2.8508176932321794
F6.846064451311504
F0.1589999981224537
F0.5179999899119139
tp1181
a(F-2.98
F-0.06815779786673826
F-7.192595642524497
F0.18600000254809856
F0.28599999845027924
tp1182
a(F3.24
F1.0661412418075735
F8.152075817171696
F0.3229999952018261
F0.4509999956935644
tp1183
a(F3.03
F-0.6007970178788584
F8.031678982004658
F0.2439999934285879
F0.3209999967366457
tp1184
a(F2.64
F-2.641241362097272
F7.775797867169843
F0.15600000135600567
F0.22099999897181988
tp1185
a(F2.01
F-4.6142057519375825
F7.163216594788757
F0.1599999964237213
F0.2089999970048666
tp1186
a(F3.62
F2.872715069050616
F8.633698290725002
F0.20200000330805779
F0.5650000013411045
tp1187
a(F3.54
F2.53892053743468
F8.668372094068541
F0.17599999718368053
F0.592999991029501
tp1188
a(F2.88
F0.41382023631522424
F8.202424362936668
F0.21199999563395977
F0.4689999930560589
tp1189
a(F2.45
F-0.766085100535078
F7.552334904398289
F0.19099999777972698
F0.22699999623000622
tp1190
a(F2.29
F-1.1849602008557465
F7.271661462800539
F0.15600000135600567
F0.2899999972432852
tp1191
a(F2.11
F-1.6057451453337233
F6.9574672621224325
F0.20200000330805779
F0.34900000132620335
tp1192
a(F3.67
F3.6778178672732693
F8.990632208571522
F0.19499999657273293
F0.4209999945014715
tp1193
a(F3.46
F2.772340374836589
F8.798951424312095
F0.18900000117719173
F0.3160000015050173
tp1194
a(F3.34
F2.2618418045983346
F8.678692473050596
F0.2860000114887953
F0.5029999893158674
tp1195
a(F3.21
F1.7304804835420315
F8.552790995128952
F0.20200000330805779
F0.5950000062584877
tp1196
a(F3.08
F1.2226948130648894
F8.406087291129937
F0.24199999496340752
F0.25799999572336674
tp1197
a(F2.21
F-1.7214198112630104
F7.411323685442329
F0.2919999919831753
F0.5319999884814024
tp1198
a(F3.54
F0.04485886457232957
F8.289767485801251
F0.3020000010728836
F0.5479999911040068
tp1199
a(F4.31
F1.5088364196664907
F8.532530543108818
F0.21900000050663948
F0.4179999940097332
tp1200
a(F4.12
F1.0029613204714956
F8.51821701696466
F0.17000000178813934
F0.578999986872077
tp1201
a(F2.11
F-2.9738007787389478
F7.897975715257406
F0.17599999718368053
F0.17999999783933163
tp1202
a(F4.16
F0.9639250476028195
F8.598405419163742
F0.1599999964237213
F0.34099998883903027
tp1203
a(F2.68
F-0.06661423782532438
F8.034122834185494
F0.19499999657273293
F0.3030000012367964
tp1204
a(F2.39
F-0.5964426010421483
F7.864529046778982
F0.27599999122321606
F0.514000004157424
tp1205
a(F4.24
F2.170629471682266
F8.62362482869977
F0.27299999445676804
F0.4460000116378069
tp1206
a(F3.94
F1.7059057419004269
F8.528699603107729
F0.2030000016093254
F0.5379999838769436
tp1207
a(F3.62
F1.222135096222499
F8.410639995975242
F0.17599999718368053
F0.4469999950379133
tp1208
a(F2.98
F0.2919550539333461
F8.174181152835304
F0.17000000178813934
F0.2389999981969595
tp1209
a(F2.64
F-0.19123186540844195
F8.032395916972796
F0.16199999675154686
F0.1789999958127737
tp1210
a(F4.13
F-0.05326990811356837
F8.718139526647006
F0.19199999794363976
F0.2510000001639128
tp1211
a(F4.98
F1.733513592748527
F8.82568643901045
F0.16299999877810478
F0.17500000074505806
tp1212
a(F-0.18
F-0.44881285481411215
F5.656459097316066
F0.22499999776482582
F0.28799999691545963
tp1213
a(F3.65
F0.5064548652807044
F8.250347518252001
F0.1599999964237213
F0.17000000178813934
tp1214
a(F-1.63
F1.9260234213167382
F5.564934194009509
F0.17599999718368053
F0.17999999783933163
tp1215
a(F3.96
F-1.4551316133332515
F-9.606110407244499
F0.16299999877810478
F0.19199999794363976
tp1216
a(F0.87
F0.49245309813831906
F-4.9234543865982126
F0.17400000244379044
F0.5769999902695417
tp1217
a(F2.36
F-1.4157258942866613
F-7.462388174100129
F0.1749999988824129
F0.372999994084239
tp1218
a(F3.05
F0.2523076707821692
F-8.70214016024015
F0.15600000135600567
F0.20500000193715096
tp1219
a(F3.03
F2.134755306059062
F-8.691118839381417
F0.19499999471008778
F0.2129999976605177
tp1220
a(F3.38
F-3.9214575904127833
F-10.537886487532514
F0.16199999675154686
F0.2389999981969595
tp1221
a(F2.8
F2.6251925667175207
F-7.102799015046499
F0.15600000135600567
F0.6139999981969595
tp1222
a(F2.96
F1.5405742010832135
F-7.696364469307595
F0.15600000135600567
F0.6119999717921019
tp1223
a(F3.02
F0.994463981038064
F-7.971606793230832
F0.308999989181757
F1.008000023663044
tp1224
a(F3.07
F0.4528116202632655
F-8.228437543203784
F0.1599999964237213
F0.35199999436736107
tp1225
a(F3.12
F-0.11891457705567832
F-8.49535011274061
F0.25999999046325684
F0.5469999890774488
tp1226
a(F3.16
F-0.6880774675935585
F-8.752772851490807
F0.17000000178813934
F0.30599999241530895
tp1227
a(F3.66
F0.9608867837175646
F-7.368829529665346
F0.1599999964237213
F0.16199999675154686
tp1228
a(F3.6
F-0.03357708788632002
F-8.234394743412778
F0.1720000021159649
F0.19199999794363976
tp1229
a(F3.35
F-0.9282779125795104
F-8.765492586104617
F0.20599999837577343
F0.2860000114887953
tp1230
a(F4.09
F0.9222827855193468
F-7.445045777520196
F0.1599999964237213
F0.20599999837577343
tp1231
a(F0.24
F0.7575215275999088
F5.372584715744805
F0.1589999981224537
F0.20799999870359898
tp1232
a(F1.45
F-0.6377019534765784
F4.951588159651964
F0.1720000021159649
F0.25999999791383743
tp1233
a(F1.89
F-0.488546949934098
F4.63352832412048
F0.17599999718368053
F0.26700000278651714
tp1234
a(F3.83
F0.31523417406215115
F-6.982210270693565
F0.5149999894201756
F1.440000046044588
tp1235
a(F3.5
F0.08553843125856364
F-7.270174301029757
F0.4309999942779541
F1.3080000225454569
tp1236
a(F3.16
F-0.1600731706987395
F-7.539296192079919
F0.3869999907910824
F1.211999997496605
tp1237
a(F2.83
F-0.38069524255769505
F-7.7757988292831115
F0.22299999743700027
F0.5939999893307686
tp1238
a(F1.7
F-1.9999454387026838
F5.421804089529868
F0.16199999675154686
F0.2440000008791685
tp1239
a(F2.14
F-1.9567741626483888
F5.331390502490701
F0.17599999904632568
F0.17800000123679638
tp1240
a(F2.54
F-1.9003082523771966
F5.22629848886087
F0.1639999970793724
F0.38999998942017555
tp1241
a(F3.41
F-2.1673209853384563
F7.536364235344108
F0.1880000028759241
F0.25699999928474426
tp1242
a(F3.19
F-2.2664032661113787
F6.656547816720067
F0.30000000074505806
F0.7159999832510948
tp1243
a(F2.94
F-0.1262540747281106
F8.572168917405532
F0.1599999964237213
F0.18899999931454659
tp1244
a(F2.89
F-0.5494452146337505
F8.35967477690057
F0.1880000028759241
F0.2389999981969595
tp1245
a(F2.83
F-0.9526224944987044
F8.14608939683994
F0.15600000135600567
F0.36700001172721386
tp1246
a(F2.77
F-1.3851875223100922
F7.88131847348556
F0.19299999624490738
F0.40299999341368675
tp1247
a(F2.7
F-1.8269683897735984
F7.607400792096133
F0.24199999496340752
F0.41799999214708805
tp1248
a(F3.53
F2.2313919396514423
F9.023524617329914
F0.1599999964237213
F0.355999993160367
tp1249
a(F3.31
F1.8159369631854259
F8.834201373818836
F0.17799999751150608
F0.19199999794363976
tp1250
a(F2.38
F0.03558293239280452
F7.955551386069695
F0.15600000135600567
F0.3510000128298998
tp1251
a(F1.88
F-0.8924328886342419
F7.449161044624009
F0.16299999505281448
F0.32499999180436134
tp1252
a(F4.8
F3.238264093664353
F9.78331115784688
F0.22299999743700027
F0.26900000125169754
tp1253
a(F4.61
F2.7271667290093076
F9.700218015248456
F0.18900000117719173
F0.30100000090897083
tp1254
a(F4.21
F1.7271377350552224
F9.552012954188035
F0.2220000009983778
F0.24099999852478504
tp1255
a(F3.99
F1.2110329785786709
F9.454986397097374
F0.2259999942034483
F0.4169999919831753
tp1256
a(F3.83
F2.6541450150153354
F8.947078370350063
F0.16199999675154686
F0.27599999122321606
tp1257
a(F4.86
F3.221210265135871
F8.721519010276896
F0.1639999970793724
F0.4140000119805336
tp1258
a(F2.99
F1.388473302556268
F8.154280079311315
F0.1730000004172325
F0.3089999910444021
tp1259
a(F0.96
F1.171357088234958
F6.424566659128688
F0.23599999956786633
F0.3320000134408474
tp1260
a(F-0.68
F0.15707914517608268
F5.364939140895002
F0.1599999964237213
F0.4659999944269657
tp1261
a(F4.06
F2.101362860884003
F8.272120216560799
F0.1599999964237213
F0.2429999988526106
tp1262
a(F3.27
F1.4649975548992147
F8.136376015181835
F0.16199999675154686
F0.1789999958127737
tp1263
a(F3.57
F1.4100270597448037
F-7.467284870240406
F0.4460000079125166
F1.2759999968111515
tp1264
a(F3.42
F0.9164972171940333
F-7.723804838140554
F0.3160000126808882
F1.2239999994635582
tp1265
a(F3.26
F0.4150873345550752
F-7.971020065169851
F0.534000001847744
F1.174999998882413
tp1266
a(F3.09
F-0.0551306352276934
F-8.188946829562209
F0.23999999463558197
F0.45499998703598976
tp1267
a(F1.08
F-4.705720131081853
F-9.751386996715814
F0.16299999877810478
F0.178999999538064
tp1268
a(F3.63
F2.784781068382908
F-7.126489367343128
F0.1599999964237213
F0.2749999947845936
tp1269
a(F3.84
F0.38987353082049303
F-6.9278857749565335
F0.22699999436736107
F0.6439999863505363
tp1270
a(F3.56
F0.11019464917768329
F-7.197187707142963
F0.27399999648332596
F0.4349999912083149
tp1271
a(F3.24
F-0.2017793600504718
F-7.455514558136774
F0.15899999998509884
F0.22400000132620335
tp1272
a(F2.68
F2.7189847066944903
F9.82409886251254
F0.1599999964237213
F0.30399999767541885
tp1273
a(F3.06
F0.5710909134770987
F9.300231539306038
F0.17799999751150608
F0.5129999928176403
tp1274
a(F3.07
F0.48124541338501337
F9.263876395794858
F0.19500000029802322
F0.49699999764561653
tp1275
a(F3.08
F0.391415249758784
F9.227552949236353
F0.16299999877810478
F0.35299999825656414
tp1276
a(F3.1
F0.2720591493305684
F9.182563060809631
F0.17599999718368053
F0.4399999901652336
tp1277
a(F3.12
F0.05975120479097501
F9.101098377713374
F0.23600000143051147
F0.43299999460577965
tp1278
a(F3.13
F-0.041135069210737396
F9.05526033322281
F0.1720000021159649
F0.38799999468028545
tp1279
a(F3.14
F-0.15354979938864483
F9.00982351312586
F0.1789999958127737
F0.16299999877810478
tp1280
a(F3.16
F-0.3697743510048218
F8.918760242760575
F0.2089999970048666
F0.38599999621510506
tp1281
a(F3.17
F-0.4735652726693904
F8.873156231348005
F0.15600000135600567
F0.32299999706447124
tp1282
a(F3.18
F-0.5672909192980491
F8.827217839294795
F0.1789999958127737
F0.5189999863505363
tp1283
a(F3.19
F-0.6919528678653527
F8.772828941468644
F0.1880000028759241
F0.3899999912828207
tp1284
a(F3.2
F-0.9129723259593929
F8.67317113484274
F0.3020000122487545
F0.4310000091791153
tp1285
a(F3.21
F-1.0078345458124172
F8.627856939815619
F0.18600000254809856
F0.3169999998062849
tp1286
a(F3.22
F-1.1344886165497963
F8.564364676237227
F0.2739999946206808
F0.5929999891668558
tp1287
a(F3.22
F-1.2305928576480543
F8.51947403134829
F0.33899999037384987
F0.611999986693263
tp1288
a(F3.23
F-1.3360240302581077
F8.465325773787548
F0.3089999910444021
F0.5090000107884407
tp1289
a(F3.23
F-1.455090025747538
F8.402225590117716
F0.22100000083446503
F0.5939999893307686
tp1290
a(F3.24
F-1.562203831693227
F8.358642669092076
F0.22199999913573265
F0.3009999990463257
tp1291
a(F3.24
F-1.6802578334062268
F8.286180334944529
F0.19199999794363976
F0.8049999941140413
tp1292
a(F3.25
F-1.776456777231002
F8.232540592310626
F0.36599999479949474
F0.6329999975860119
tp1293
a(F3.25
F-1.9060148364696006
F8.171443424081259
F0.28999999165534973
F0.641999987885356
tp1294
a(F3.25
F-2.0025934446324207
F8.108508697620763
F0.17599999718368053
F0.592999991029501
tp1295
a(F3.25
F-2.132350379927374
F8.038350787263859
F0.2860000114887953
F0.6489999983459711
tp1296
a(F3.26
F-2.2304578275959317
F7.986182443550008
F0.16299999505281448
F0.4220000021159649
tp1297
a(F3.26
F-2.555821762329255
F7.794580970203506
F0.30000001192092896
F0.4979999903589487
tp1298
a(F3.26
F-2.6766132342632374
F7.726230569986153
F0.27000001072883606
F0.7959999870508909
tp1299
a(F3.26
F-2.7739765089580444
F7.665954236380408
F0.25200000032782555
F0.661999985575676
tp1300
a(F3.25
F-2.8944964232616113
F7.588808675995353
F0.1599999964237213
F0.49500000663101673
tp1301
a(F3.25
F-2.9924590243946314
F7.529561374824202
F0.28400000371038914
F0.8959999736398458
tp1302
a(F3.25
F-3.089293671649478
F7.460685831634535
F0.4359999895095825
F0.8669999856501818
tp1303
a(F2.64
F-1.4070752385744631
F8.568622576140719
F0.20999999344348907
F0.38199999555945396
tp1304
a.