(lp0
(cdecimal
Decimal
p1
(S'2000.5000'
p2
tp3
Rp4
F184.60000610351562
F-90.0
tp5
a(g1
(S'2000.5833'
p6
tp7
Rp8
F217.10000610351562
F-347.0
tp9
a(g1
(S'2000.6667'
p10
tp11
Rp12
F165.89999389648438
F-235.0
tp13
a(g1
(S'2000.7500'
p14
tp15
Rp16
F181.97999572753906
F-203.0
tp17
a(g1
(S'2000.8333'
p18
tp19
Rp20
F161.89999389648438
F-187.0
tp21
a(g1
(S'2000.9167'
p22
tp23
Rp24
F177.4969940185547
F-176.0
tp25
a(g1
(S'2001.0000'
p26
tp27
Rp28
F176.5
F-70.0
tp29
a(g1
(S'2001.0833'
p30
tp31
Rp32
F161.8000030517578
F-78.0
tp33
a(g1
(S'2001.1667'
p34
tp35
Rp36
F140.89999389648438
F-56.0
tp37
a(g1
(S'2001.2500'
p38
tp39
Rp40
F155.8000030517578
F-437.0
tp41
a(g1
(S'2001.3333'
p42
tp43
Rp44
F190.39999389648438
F-280.0
tp45
a(g1
(S'2001.4167'
p46
tp47
Rp48
F145.1999969482422
F-90.0
tp49
a(g1
(S'2001.5000'
p50
tp51
Rp52
F178.31700134277344
F-84.0
tp53
a(g1
(S'2001.5833'
p54
tp55
Rp56
F136.6999969482422
F-51.0
tp57
a(g1
(S'2001.6667'
p58
tp59
Rp60
F164.6999969482422
F-131.0
tp61
a(g1
(S'2001.7500'
p62
tp63
Rp64
F238.71299743652344
F-118.0
tp65
a(g1
(S'2001.8333'
p66
tp67
Rp68
F212.8000030517578
F-219.0
tp69
a(g1
(S'2001.9167'
p70
tp71
Rp72
F210.5
F-320.0
tp73
a(g1
(S'2002.0000'
p74
tp75
Rp76
F226.6999969482422
F-65.0
tp77
a(g1
(S'2002.0833'
p78
tp79
Rp80
F220.89999389648438
F-76.0
tp81
a(g1
(S'2002.1667'
p82
tp83
Rp84
F195.02000427246094
F-90.0
tp85
a(g1
(S'2002.2500'
p86
tp87
Rp88
F176.5
F-114.0
tp89
a(g1
(S'2002.3333'
p90
tp91
Rp92
F196.22000122070312
F-185.0
tp93
a(g1
(S'2002.4167'
p94
tp95
Rp96
F187.0
F-116.0
tp97
a(g1
(S'2002.5000'
p98
tp99
Rp100
F149.5800018310547
F-51.0
tp101
a(g1
(S'2002.5833'
p102
tp103
Rp104
F177.1999969482422
F-60.0
tp105
a(g1
(S'2002.6667'
p106
tp107
Rp108
F183.6999969482422
F-119.0
tp109
a(g1
(S'2002.7500'
p110
tp111
Rp112
F176.89999389648438
F-168.0
tp113
a(g1
(S'2002.8333'
p114
tp115
Rp116
F166.8000030517578
F-154.0
tp117
a(g1
(S'2002.9167'
p118
tp119
Rp120
F170.0749969482422
F-127.0
tp121
a(g1
(S'2003.0000'
p122
tp123
Rp124
F147.6999969482422
F-90.0
tp125
a(g1
(S'2003.0833'
p126
tp127
Rp128
F133.10000610351562
F-67.0
tp129
a(g1
(S'2003.1667'
p130
tp131
Rp132
F122.5999984741211
F-84.0
tp133
a(g1
(S'2003.2500'
p134
tp135
Rp136
F137.3000030517578
F-90.0
tp137
a(g1
(S'2003.3333'
p138
tp139
Rp140
F126.66999816894531
F-78.0
tp141
a(g1
(S'2003.4167'
p142
tp143
Rp144
F120.0
F-164.0
tp145
a(g1
(S'2003.5000'
p146
tp147
Rp148
F126.5
F-163.0
tp149
a(g1
(S'2003.5833'
p150
tp151
Rp152
F134.0
F-125.0
tp153
a(g1
(S'2003.6667'
p154
tp155
Rp156
F123.5999984741211
F-139.0
tp157
a(g1
(S'2003.7500'
p158
tp159
Rp160
F110.19999694824219
F-77.0
tp161
a(g1
(S'2003.8333'
p162
tp163
Rp164
F119.4000015258789
F-432.0
tp165
a(g1
(S'2003.9167'
p166
tp167
Rp168
F148.60000610351562
F-490.0
tp169
a(g1
(S'2004.0000'
p170
tp171
Rp172
F112.5
F-72.0
tp173
a(g1
(S'2004.0833'
p174
tp175
Rp176
F114.4000015258789
F-137.0
tp177
a(g1
(S'2004.1667'
p178
tp179
Rp180
F102.5
F-107.0
tp181
a(g1
(S'2004.2500'
p182
tp183
Rp184
F110.4000015258789
F-101.0
tp185
a(g1
(S'2004.3333'
p186
tp187
Rp188
F99.4000015258789
F-149.0
tp189
a(g1
(S'2004.4167'
p190
tp191
Rp192
F104.0
F-55.0
tp193
a(g1
(S'2004.5000'
p194
tp195
Rp196
F95.44999694824219
F-52.0
tp197
a(g1
(S'2004.5833'
p198
tp199
Rp200
F121.80000305175781
F-208.0
tp201
a(g1
(S'2004.6667'
p202
tp203
Rp204
F107.69999694824219
F-128.0
tp205
a(g1
(S'2004.7500'
p206
tp207
Rp208
F103.23999786376953
F-59.0
tp209
a(g1
(S'2004.8333'
p210
tp211
Rp212
F92.0
F-64.0
tp213
a(g1
(S'2004.9167'
p214
tp215
Rp216
F106.38999938964844
F-394.0
tp217
a(g1
(S'2005.0000'
p218
tp219
Rp220
F90.9000015258789
F-58.0
tp221
a(g1
(S'2005.0833'
p222
tp223
Rp224
F91.19999694824219
F-112.0
tp225
a(g1
(S'2005.1667'
p226
tp227
Rp228
F93.99330139160156
F-95.0
tp229
a(g1
(S'2005.2500'
p230
tp231
Rp232
F86.69999694824219
F-66.0
tp233
a(g1
(S'2005.3333'
p234
tp235
Rp236
F85.5
F-93.0
tp237
a(g1
(S'2005.4167'
p238
tp239
Rp240
F101.4000015258789
F-305.0
tp241
a(g1
(S'2005.5000'
p242
tp243
Rp244
F96.70500183105469
F-113.0
tp245
a(g1
(S'2005.5833'
p246
tp247
Rp248
F96.4000015258789
F-114.0
tp249
a(g1
(S'2005.6667'
p250
tp251
Rp252
F94.0
F-179.0
tp253
a(g1
(S'2005.7500'
p254
tp255
Rp256
F86.30000305175781
F-137.0
tp257
a(g1
(S'2005.8333'
p258
tp259
Rp260
F76.69999694824219
F-78.0
tp261
a(g1
(S'2005.9167'
p262
tp263
Rp264
F81.18000030517578
F-51.0
tp265
a(g1
(S'2006.0000'
p266
tp267
Rp268
F86.80000305175781
F-62.0
tp269
a(g1
(S'2006.0833'
p270
tp271
Rp272
F80.5999984741211
F-61.0
tp273
a(g1
(S'2006.1667'
p274
tp275
Rp276
F74.5
F-43.0
tp277
a(g1
(S'2006.2500'
p278
tp279
Rp280
F73.80000305175781
F-62.0
tp281
a(g1
(S'2006.3333'
p282
tp283
Rp284
F89.86669921875
F-111.0
tp285
a(g1
(S'2006.4167'
p286
tp287
Rp288
F83.80000305175781
F-62.0
tp289
a(g1
(S'2006.5000'
p290
tp291
Rp292
F78.06670379638672
F-45.0
tp293
a(g1
(S'2006.5833'
p294
tp295
Rp296
F75.9000015258789
F-70.0
tp297
a(g1
(S'2006.6667'
p298
tp299
Rp300
F80.0999984741211
F-95.0
tp301
a(g1
(S'2006.7500'
p302
tp303
Rp304
F78.07499694824219
F-72.0
tp305
a(g1
(S'2006.8333'
p306
tp307
Rp308
F74.0
F-64.0
tp309
a(g1
(S'2006.9167'
p310
tp311
Rp312
F84.19999694824219
F-81.0
tp313
a(g1
(S'2007.0000'
p314
tp315
Rp316
F80.5
F-211.0
tp317
a(g1
(S'2007.0833'
p318
tp319
Rp320
F79.4000015258789
F-54.0
tp321
a(g1
(S'2007.1667'
p322
tp323
Rp324
F73.9000015258789
F-41.0
tp325
a(g1
(S'2007.2500'
p326
tp327
Rp328
F71.80000305175781
F-79.0
tp329
a(g1
(S'2007.3333'
p330
tp331
Rp332
F70.80000305175781
F-71.0
tp333
a(g1
(S'2007.4167'
p334
tp335
Rp336
F75.0
F-71.0
tp337
a(g1
(S'2007.5000'
p338
tp339
Rp340
F74.19999694824219
F-34.0
tp341
a(g1
(S'2007.5833'
p342
tp343
Rp344
F73.9000015258789
F-57.0
tp345
a(g1
(S'2007.6667'
p346
tp347
Rp348
F70.9000015258789
F-40.0
tp349
a(g1
(S'2007.7500'
p350
tp351
Rp352
F67.4000015258789
F-47.0
tp353
a(g1
(S'2007.8333'
p354
tp355
Rp356
F66.80000305175781
F-60.0
tp357
a(g1
(S'2007.9167'
p358
tp359
Rp360
F68.19999694824219
F-67.0
tp361
a(g1
(S'2008.0000'
p362
tp363
Rp364
F72.5
F-43.0
tp365
a(g1
(S'2008.0833'
p366
tp367
Rp368
F71.30000305175781
F-45.0
tp369
a(g1
(S'2008.1667'
p370
tp371
Rp372
F69.4000015258789
F-50.0
tp373
a(g1
(S'2008.2500'
p374
tp375
Rp376
F69.0999984741211
F-100.0
tp377
a(g1
(S'2008.3333'
p378
tp379
Rp380
F69.9000015258789
F-47.0
tp381
a(g1
(S'2008.4167'
p382
tp383
Rp384
F69.5999984741211
F-47.0
tp385
a(g1
(S'2008.5000'
p386
tp387
Rp388
F68.0
F-49.0
tp389
a(g1
(S'2008.5833'
p390
tp391
Rp392
F67.80000305175781
F-41.0
tp393
a(g1
(S'2008.6667'
p394
tp395
Rp396
F68.0
F-43.0
tp397
a(g1
(S'2008.7500'
p398
tp399
Rp400
F67.77999877929688
F-67.0
tp401
a(g1
(S'2008.8333'
p402
tp403
Rp404
F67.19999694824219
F-65.0
tp405
a(g1
(S'2008.9167'
p406
tp407
Rp408
F66.80000305175781
F-43.0
tp409
a(g1
(S'2009.0000'
p410
tp411
Rp412
F67.0
F-35.0
tp413
a(g1
(S'2009.0833'
p414
tp415
Rp416
F67.4000015258789
F-38.0
tp417
a(g1
(S'2009.1667'
p418
tp419
Rp420
F68.2667007446289
F-39.0
tp421
a(g1
(S'2009.2500'
p422
tp423
Rp424
F68.0999984741211
F-45.0
tp425
a(g1
(S'2009.3333'
p426
tp427
Rp428
F70.4000015258789
F-33.0
tp429
a(g1
(S'2009.4167'
p430
tp431
Rp432
F72.19999694824219
F-31.0
tp433
a(g1
(S'2009.5000'
p434
tp435
Rp436
F70.4000015258789
F-39.0
tp437
a(g1
(S'2009.5833'
p438
tp439
Rp440
F70.0999984741211
F-95.0
tp441
a(g1
(S'2009.6667'
p442
tp443
Rp444
F69.0999984741211
F-53.0
tp445
a(g1
(S'2009.7500'
p446
tp447
Rp448
F70.19999694824219
F-30.0
tp449
a(g1
(S'2009.8333'
p450
tp451
Rp452
F70.5
F-56.0
tp453
a(g1
(S'2009.9167'
p454
tp455
Rp456
F71.69999694824219
F-30.0
tp457
a(g1
(S'2010.0000'
p458
tp459
Rp460
F73.4000015258789
F-19.0
tp461
a(g1
(S'2010.0833'
p462
tp463
Rp464
F78.9000015258789
F-42.0
tp465
a(g1
(S'2010.1667'
p466
tp467
Rp468
F82.07499694824219
F-64.0
tp469
a(g1
(S'2010.2500'
p470
tp471
Rp472
F83.0999984741211
F-33.0
tp473
a(g1
(S'2010.3333'
p474
tp475
Rp476
F76.23999786376953
F-90.0
tp477
a(g1
(S'2010.4167'
p478
tp479
Rp480
F75.0
F-77.0
tp481
a(g1
(S'2010.5000'
p482
tp483
Rp484
F75.19999694824219
F-58.0
tp485
a(g1
(S'2010.5833'
p486
tp487
Rp488
F82.5999984741211
F-36.0
tp489
a(g1
(S'2010.6667'
p490
tp491
Rp492
F82.0999984741211
F-81.0
tp493
a(g1
(S'2010.7500'
p494
tp495
Rp496
F82.9000015258789
F-41.0
tp497
a(g1
(S'2010.8333'
p498
tp499
Rp500
F81.69999694824219
F-76.0
tp501
a(g1
(S'2010.9167'
p502
tp503
Rp504
F82.0
F-55.0
tp505
a(g1
(S'2011.0000'
p506
tp507
Rp508
F84.0999984741211
F-47.0
tp509
a(g1
(S'2011.0833'
p510
tp511
Rp512
F79.9000015258789
F-49.0
tp513
a(g1
(S'2011.1667'
p514
tp515
Rp516
F88.9000015258789
F-67.0
tp517
a(g1
(S'2011.2500'
p518
tp519
Rp520
F113.0999984741211
F-92.0
tp521
a(g1
(S'2011.3333'
p522
tp523
Rp524
F112.36000061035156
F-65.0
tp525
a(g1
(S'2011.4167'
p526
tp527
Rp528
F96.0
F-94.0
tp529
a(g1
(S'2011.5000'
p530
tp531
Rp532
F99.30000305175781
F-60.0
tp533
a(g1
(S'2011.5833'
p534
tp535
Rp536
F95.4000015258789
F-59.0
tp537
a(g1
(S'2011.6667'
p538
tp539
Rp540
F103.30000305175781
F-126.0
tp541
a(g1
(S'2011.7500'
p542
tp543
Rp544
F137.697998046875
F-116.0
tp545
a(g1
(S'2011.8333'
p546
tp547
Rp548
F133.5
F-160.0
tp549
a(g1
(S'2011.9167'
p550
tp551
Rp552
F143.2729949951172
F-63.0
tp553
a(g1
(S'2012.0000'
p554
tp555
Rp556
F138.10000610351562
F-39.0
tp557
a(g1
(S'2012.0833'
p558
tp559
Rp560
F131.0
F-88.0
tp561
a(g1
(S'2012.1667'
p562
tp563
Rp564
F104.0
F-76.0
tp565
a(g1
(S'2012.2500'
p566
tp567
Rp568
F109.4000015258789
F-150.0
tp569
a(g1
(S'2012.3333'
p570
tp571
Rp572
F108.80000305175781
F-125.0
tp573
a(g1
(S'2012.4167'
p574
tp575
Rp576
F123.9000015258789
F-64.0
tp577
a(g1
(S'2012.5000'
p578
tp579
Rp580
F130.97999572753906
F-69.0
tp581
a(g1
(S'2012.5833'
p582
tp583
Rp584
F144.0
F-123.0
tp585
a(g1
(S'2012.6667'
p586
tp587
Rp588
F115.30000305175781
F-39.0
tp589
a(g1
(S'2012.7500'
p590
tp591
Rp592
F130.4530029296875
F-83.0
tp593
a(g1
(S'2012.8333'
p594
tp595
Rp596
F121.30000305175781
F-138.0
tp597
a(g1
(S'2012.9167'
p598
tp599
Rp600
F118.4000015258789
F-118.0
tp601
a(g1
(S'2013.0000'
p602
tp603
Rp604
F106.19999694824219
F-29.0
tp605
a(g1
(S'2013.0833'
p606
tp607
Rp608
F115.0
F-62.0
tp609
a(g1
(S'2013.1667'
p610
tp611
Rp612
F102.10299682617188
F-46.0
tp613
a(g1
(S'2013.2500'
p614
tp615
Rp616
F112.0999984741211
F-132.0
tp617
a(g1
(S'2013.3333'
p618
tp619
Rp620
F125.44300079345703
F-52.0
tp621
a(g1
(S'2013.4167'
p622
tp623
Rp624
F135.1999969482422
F-67.0
tp625
a(g1
(S'2013.5000'
p626
tp627
Rp628
F112.5999984741211
F-137.0
tp629
a(g1
(S'2013.5833'
p630
tp631
Rp632
F117.0999984741211
F-80.0
tp633
a(g1
(S'2013.6667'
p634
tp635
Rp636
F115.0
F-64.0
tp637
a(g1
(S'2013.7500'
p638
tp639
Rp640
F105.5999984741211
F-35.0
tp641
a(g1
(S'2013.8333'
p642
tp643
Rp644
F128.60000610351562
F-90.0
tp645
a(g1
(S'2013.9167'
p646
tp647
Rp648
F144.3000030517578
F-79.0
tp649
a(g1
(S'2014.0000'
p650
tp651
Rp652
F144.39999389648438
F-72.0
tp653
a(g1
(S'2014.0833'
p654
tp655
Rp656
F150.1999969482422
F-39.0
tp657
a(g1
(S'2014.1667'
p658
tp659
Rp660
F167.1999969482422
F-127.0
tp661
a(g1
(S'2014.2500'
p662
tp663
Rp664
F147.89999389648438
F-51.0
tp665
a(g1
(S'2014.3333'
p666
tp667
Rp668
F140.64999389648438
F-92.0
tp669
a(g1
(S'2014.4167'
p670
tp671
Rp672
F133.6999969482422
F-62.0
tp673
a(g1
(S'2014.5000'
p674
tp675
Rp676
F117.6500015258789
F-72.0
tp677
a(g1
(S'2014.5833'
p678
tp679
Rp680
F136.3000030517578
F-34.0
tp681
a(g1
(S'2014.6667'
p682
tp683
Rp684
F125.5
F-90.0
tp685
a(g1
(S'2014.7500'
p686
tp687
Rp688
F146.89999389648438
F-97.0
tp689
a(g1
(S'2014.8333'
p690
tp691
Rp692
F138.39999389648438
F-58.0
tp693
a(g1
(S'2014.9167'
p694
tp695
Rp696
F157.4530029296875
F-63.0
tp697
a(g1
(S'2015.0000'
p698
tp699
Rp700
F149.39999389648438
F-65.0
tp701
a(g1
(S'2015.0833'
p702
tp703
Rp704
F141.0
F-135.0
tp705
a(g1
(S'2015.1667'
p706
tp707
Rp708
F119.08699798583984
F-76.0
tp709
a(g1
(S'2015.2500'
p710
tp711
Rp712
F125.0999984741211
F-234.0
tp713
a(g1
(S'2015.3333'
p714
tp715
Rp716
F124.10800170898438
F-89.0
tp717
a(g1
(S'2015.4167'
p718
tp719
Rp720
F112.9000015258789
F-98.0
tp721
a(g1
(S'2015.5000'
p722
tp723
Rp724
F136.60000610351562
F-208.0
tp725
a(g1
(S'2015.5833'
p726
tp727
Rp728
F104.4000015258789
F-87.0
tp729
a(g1
(S'2015.6667'
p730
tp731
Rp732
F108.69999694824219
F-101.0
tp733
a(g1
(S'2015.7500'
p734
tp735
Rp736
F103.80000305175781
F-113.0
tp737
a(g1
(S'2015.8333'
p738
tp739
Rp740
F106.0999984741211
F-124.0
tp741
a(g1
(S'2015.9167'
p742
tp743
Rp744
F105.5999984741211
F-106.0
tp745
a(g1
(S'2016.0000'
p746
tp747
Rp748
F110.30000305175781
F-170.0
tp749
a(g1
(S'2016.0833'
p750
tp751
Rp752
F99.9000015258789
F-117.0
tp753
a(g1
(S'2016.1667'
p754
tp755
Rp756
F99.0999984741211
F-60.0
tp757
a(g1
(S'2016.2500'
p758
tp759
Rp760
F90.69999694824219
F-110.0
tp761
a(g1
(S'2016.3333'
p762
tp763
Rp764
F93.77999877929688
F-70.0
tp765
a(g1
(S'2016.4167'
p766
tp767
Rp768
F93.9000015258789
F-105.0
tp769
a(g1
(S'2016.5000'
p770
tp771
Rp772
F83.99500274658203
F-55.0
tp773
a(g1
(S'2016.5833'
p774
tp775
Rp776
F88.9000015258789
F-51.0
tp777
a(g1
(S'2016.6667'
p778
tp779
Rp780
F85.5
F-83.0
tp781
a(g1
(S'2016.7500'
p782
tp783
Rp784
F86.0999984741211
F-74.0
tp785
a(g1
(S'2016.8333'
p786
tp787
Rp788
F80.4000015258789
F-114.0
tp789
a(g1
(S'2016.9167'
p790
tp791
Rp792
F75.80000305175781
F-55.0
tp793
a(g1
(S'2017.0000'
p794
tp795
Rp796
F71.0999984741211
F-55.0
tp797
a(g1
(S'2017.0833'
p798
tp799
Rp800
F74.4000015258789
F-47.0
tp801
a(g1
(S'2017.1667'
p802
tp803
Rp804
F73.48829650878906
F-48.0
tp805
a(g1
(S'2017.2500'
p806
tp807
Rp808
F71.5
F-86.0
tp809
a(g1
(S'2017.3333'
p810
tp811
Rp812
F79.16329956054688
F-53.0
tp813
a(g1
(S'2017.4167'
p814
tp815
Rp816
F74.80000305175781
F-142.0
tp817
a(g1
(S'2017.5000'
p818
tp819
Rp820
F76.5999984741211
F-39.0
tp821
a(g1
(S'2017.5833'
p822
tp823
Rp824
F74.4000015258789
F-67.0
tp825
a(g1
(S'2017.6667'
p826
tp827
Rp828
F78.5
F-64.0
tp829
a(g1
(S'2017.7500'
p830
tp831
Rp832
F89.5999984741211
F-146.0
tp833
a(g1
(S'2017.8333'
p834
tp835
Rp836
F75.0
F-68.0
tp837
a(g1
(S'2017.9167'
p838
tp839
Rp840
F71.40670013427734
F-89.0
tp841
a(g1
(S'2018.0000'
p842
tp843
Rp844
F69.0999984741211
F-47.0
tp845
a(g1
(S'2018.0833'
p846
tp847
Rp848
F67.9000015258789
F-34.0
tp849
a(g1
(S'2018.1667'
p850
tp851
Rp852
F68.69999694824219
F-60.0
tp853
a(g1
(S'2018.2500'
p854
tp855
Rp856
F67.69999694824219
F-53.0
tp857
a(g1
(S'2018.3333'
p858
tp859
Rp860
F70.0999984741211
F-86.0
tp861
a(g1
(S'2018.4167'
p862
tp863
Rp864
F71.5
F-66.0
tp865
a(g1
(S'2018.5000'
p866
tp867
Rp868
F73.27330017089844
F-49.0
tp869
a(g1
(S'2018.5833'
p870
tp871
Rp872
F72.19999694824219
F-35.0
tp873
a(g1
(S'2018.6667'
p874
tp875
Rp876
F71.0999984741211
F-206.0
tp877
a(g1
(S'2018.7500'
p878
tp879
Rp880
F68.9000015258789
F-64.0
tp881
a.