(lp0
(I2001
I14916
tp1
a(I2002
I23747
tp2
a(I2003
I39588
tp3
a(I2004
I39631
tp4
a(I2005
I29519
tp5
a(I2006
I29151
tp6
a(I2007
I26288
tp7
a(I2008
I28828
tp8
a(I2009
I29454
tp9
a(I2010
I27986
tp10
a(I2011
I27313
tp11
a(I2012
I24776
tp12
a(I2013
I24687
tp13
a(I2014
I25644
tp14
a(I2015
I22688
tp15
a(I2016
I24364
tp16
a(I2017
I25347
tp17
a(I2018
I27592
tp18
a(I2019
I27668
tp19
a.